Archive member included to satisfy reference by file (symbol)

/home/howard/app/ti/msp430-gcc/bin/../lib/gcc/msp430-elf/8.3.0/libgcc.a(_addsub_sf.o)
                              packet.o (__mspabi_addf)
/home/howard/app/ti/msp430-gcc/bin/../lib/gcc/msp430-elf/8.3.0/libgcc.a(_mul_sf.o)
                              debug.o (__mspabi_mpyf)
/home/howard/app/ti/msp430-gcc/bin/../lib/gcc/msp430-elf/8.3.0/libgcc.a(_div_sf.o)
                              packet.o (__mspabi_divf)
/home/howard/app/ti/msp430-gcc/bin/../lib/gcc/msp430-elf/8.3.0/libgcc.a(_gt_sf.o)
                              packet.o (__gtsf2)
/home/howard/app/ti/msp430-gcc/bin/../lib/gcc/msp430-elf/8.3.0/libgcc.a(_lt_sf.o)
                              packet.o (__ltsf2)
/home/howard/app/ti/msp430-gcc/bin/../lib/gcc/msp430-elf/8.3.0/libgcc.a(_si_to_sf.o)
                              debug.o (__mspabi_fltlif)
/home/howard/app/ti/msp430-gcc/bin/../lib/gcc/msp430-elf/8.3.0/libgcc.a(_sf_to_si.o)
                              debug.o (__mspabi_fixfli)
/home/howard/app/ti/msp430-gcc/bin/../lib/gcc/msp430-elf/8.3.0/libgcc.a(_sf_to_df.o)
                              packet.o (__mspabi_cvtfd)
/home/howard/app/ti/msp430-gcc/bin/../lib/gcc/msp430-elf/8.3.0/libgcc.a(_thenan_sf.o)
                              /home/howard/app/ti/msp430-gcc/bin/../lib/gcc/msp430-elf/8.3.0/libgcc.a(_addsub_sf.o) (__thenan_sf)
/home/howard/app/ti/msp430-gcc/bin/../lib/gcc/msp430-elf/8.3.0/libgcc.a(_addsub_df.o)
                              packet.o (__mspabi_addd)
/home/howard/app/ti/msp430-gcc/bin/../lib/gcc/msp430-elf/8.3.0/libgcc.a(_mul_df.o)
                              hydrologytask.o (__mspabi_mpyd)
/home/howard/app/ti/msp430-gcc/bin/../lib/gcc/msp430-elf/8.3.0/libgcc.a(_div_df.o)
                              packet.o (__mspabi_divd)
/home/howard/app/ti/msp430-gcc/bin/../lib/gcc/msp430-elf/8.3.0/libgcc.a(_lt_df.o)
                              packet.o (__ltdf2)
/home/howard/app/ti/msp430-gcc/bin/../lib/gcc/msp430-elf/8.3.0/libgcc.a(_si_to_df.o)
                              hydrologytask.o (__mspabi_fltlid)
/home/howard/app/ti/msp430-gcc/bin/../lib/gcc/msp430-elf/8.3.0/libgcc.a(_df_to_si.o)
                              message.o (__mspabi_fixdli)
/home/howard/app/ti/msp430-gcc/bin/../lib/gcc/msp430-elf/8.3.0/libgcc.a(_make_df.o)
                              /home/howard/app/ti/msp430-gcc/bin/../lib/gcc/msp430-elf/8.3.0/libgcc.a(_sf_to_df.o) (__make_dp)
/home/howard/app/ti/msp430-gcc/bin/../lib/gcc/msp430-elf/8.3.0/libgcc.a(_df_to_sf.o)
                              debug.o (__mspabi_cvtdf)
/home/howard/app/ti/msp430-gcc/bin/../lib/gcc/msp430-elf/8.3.0/libgcc.a(_thenan_df.o)
                              /home/howard/app/ti/msp430-gcc/bin/../lib/gcc/msp430-elf/8.3.0/libgcc.a(_addsub_df.o) (__thenan_df)
/home/howard/app/ti/msp430-gcc/bin/../lib/gcc/msp430-elf/8.3.0/libgcc.a(lib2divHI.o)
                              debug.o (__mspabi_divi)
/home/howard/app/ti/msp430-gcc/bin/../lib/gcc/msp430-elf/8.3.0/libgcc.a(lib2divSI.o)
                              common.o (__mspabi_divul)
/home/howard/app/ti/msp430-gcc/bin/../lib/gcc/msp430-elf/8.3.0/libgcc.a(slli.o)
                              common.o (__mspabi_slli)
/home/howard/app/ti/msp430-gcc/bin/../lib/gcc/msp430-elf/8.3.0/libgcc.a(srai.o)
                              rom.o (__mspabi_srai)
/home/howard/app/ti/msp430-gcc/bin/../lib/gcc/msp430-elf/8.3.0/libgcc.a(srli.o)
                              adc.o (__mspabi_srli_3)
/home/howard/app/ti/msp430-gcc/bin/../lib/gcc/msp430-elf/8.3.0/libgcc.a(_clzsi2.o)
                              /home/howard/app/ti/msp430-gcc/bin/../lib/gcc/msp430-elf/8.3.0/libgcc.a(_si_to_sf.o) (__clzsi2)
/home/howard/app/ti/msp430-gcc/bin/../lib/gcc/msp430-elf/8.3.0/libgcc.a(_udivdi3.o)
                              /home/howard/app/ti/msp430-gcc/bin/../lib/gcc/msp430-elf/8.3.0/libgcc.a(lib2divSI.o) (__mspabi_divull)
/home/howard/app/ti/msp430-gcc/bin/../lib/gcc/msp430-elf/8.3.0/libgcc.a(_pack_sf.o)
                              /home/howard/app/ti/msp430-gcc/bin/../lib/gcc/msp430-elf/8.3.0/libgcc.a(_addsub_sf.o) (__pack_f)
/home/howard/app/ti/msp430-gcc/bin/../lib/gcc/msp430-elf/8.3.0/libgcc.a(_unpack_sf.o)
                              /home/howard/app/ti/msp430-gcc/bin/../lib/gcc/msp430-elf/8.3.0/libgcc.a(_addsub_sf.o) (__unpack_f)
/home/howard/app/ti/msp430-gcc/bin/../lib/gcc/msp430-elf/8.3.0/libgcc.a(_fpcmp_parts_sf.o)
                              /home/howard/app/ti/msp430-gcc/bin/../lib/gcc/msp430-elf/8.3.0/libgcc.a(_gt_sf.o) (__fpcmp_parts_f)
/home/howard/app/ti/msp430-gcc/bin/../lib/gcc/msp430-elf/8.3.0/libgcc.a(_make_sf.o)
                              /home/howard/app/ti/msp430-gcc/bin/../lib/gcc/msp430-elf/8.3.0/libgcc.a(_df_to_sf.o) (__make_fp)
/home/howard/app/ti/msp430-gcc/bin/../lib/gcc/msp430-elf/8.3.0/libgcc.a(_pack_df.o)
                              /home/howard/app/ti/msp430-gcc/bin/../lib/gcc/msp430-elf/8.3.0/libgcc.a(_addsub_df.o) (__pack_d)
/home/howard/app/ti/msp430-gcc/bin/../lib/gcc/msp430-elf/8.3.0/libgcc.a(_unpack_df.o)
                              /home/howard/app/ti/msp430-gcc/bin/../lib/gcc/msp430-elf/8.3.0/libgcc.a(_addsub_df.o) (__unpack_d)
/home/howard/app/ti/msp430-gcc/bin/../lib/gcc/msp430-elf/8.3.0/libgcc.a(_fpcmp_parts_df.o)
                              /home/howard/app/ti/msp430-gcc/bin/../lib/gcc/msp430-elf/8.3.0/libgcc.a(_lt_df.o) (__fpcmp_parts_d)
/home/howard/app/ti/msp430-gcc/bin/../lib/gcc/msp430-elf/8.3.0/libgcc.a(_clz.o)
                              /home/howard/app/ti/msp430-gcc/bin/../lib/gcc/msp430-elf/8.3.0/libgcc.a(_clzsi2.o) (__clz_tab)
/home/howard/app/ti/msp430-gcc/bin/../lib/gcc/msp430-elf/8.3.0/libgcc.a(_clzdi2.o)
                              /home/howard/app/ti/msp430-gcc/bin/../lib/gcc/msp430-elf/8.3.0/libgcc.a(_udivdi3.o) (__clzdi2)
/home/howard/app/ti/msp430-gcc/bin/../lib/gcc/msp430-elf/8.3.0/libmul_f5.a(lib2hw_mul_f5.o)
                              GTM900C.o (__mulhi2_f5)
/home/howard/app/ti/msp430-gcc/bin/../lib/gcc/msp430-elf/8.3.0/../../../../msp430-elf/lib/libc.a(lib_a-abort.o)
                              debug.o (abort)
/home/howard/app/ti/msp430-gcc/bin/../lib/gcc/msp430-elf/8.3.0/../../../../msp430-elf/lib/libc.a(lib_a-atof.o)
                              packet.o (atof)
/home/howard/app/ti/msp430-gcc/bin/../lib/gcc/msp430-elf/8.3.0/../../../../msp430-elf/lib/libc.a(lib_a-atoi.o)
                              GTM900C.o (atoi)
/home/howard/app/ti/msp430-gcc/bin/../lib/gcc/msp430-elf/8.3.0/../../../../msp430-elf/lib/libc.a(lib_a-malloc.o)
                              GTM900C.o (malloc)
/home/howard/app/ti/msp430-gcc/bin/../lib/gcc/msp430-elf/8.3.0/../../../../msp430-elf/lib/libc.a(lib_a-memcpy.o)
                              common.o (memcpy)
/home/howard/app/ti/msp430-gcc/bin/../lib/gcc/msp430-elf/8.3.0/../../../../msp430-elf/lib/libc.a(lib_a-memset.o)
                              common.o (memset)
/home/howard/app/ti/msp430-gcc/bin/../lib/gcc/msp430-elf/8.3.0/../../../../msp430-elf/lib/libc.a(lib_a-nano-freer.o)
                              /home/howard/app/ti/msp430-gcc/bin/../lib/gcc/msp430-elf/8.3.0/../../../../msp430-elf/lib/libc.a(lib_a-malloc.o) (_free_r)
/home/howard/app/ti/msp430-gcc/bin/../lib/gcc/msp430-elf/8.3.0/../../../../msp430-elf/lib/libc.a(lib_a-nano-mallocr.o)
                              /home/howard/app/ti/msp430-gcc/bin/../lib/gcc/msp430-elf/8.3.0/../../../../msp430-elf/lib/libc.a(lib_a-malloc.o) (_malloc_r)
/home/howard/app/ti/msp430-gcc/bin/../lib/gcc/msp430-elf/8.3.0/../../../../msp430-elf/lib/libc.a(lib_a-printf.o)
                              rom.o (printf)
/home/howard/app/ti/msp430-gcc/bin/../lib/gcc/msp430-elf/8.3.0/../../../../msp430-elf/lib/libc.a(lib_a-putchar.o)
                              blueTooth.o (putchar)
/home/howard/app/ti/msp430-gcc/bin/../lib/gcc/msp430-elf/8.3.0/../../../../msp430-elf/lib/libc.a(lib_a-putc.o)
                              /home/howard/app/ti/msp430-gcc/bin/../lib/gcc/msp430-elf/8.3.0/../../../../msp430-elf/lib/libc.a(lib_a-putchar.o) (_putc_r)
/home/howard/app/ti/msp430-gcc/bin/../lib/gcc/msp430-elf/8.3.0/../../../../msp430-elf/lib/libc.a(lib_a-puts.o)
                              blueTooth.o (puts)
/home/howard/app/ti/msp430-gcc/bin/../lib/gcc/msp430-elf/8.3.0/../../../../msp430-elf/lib/libc.a(lib_a-sbrkr.o)
                              /home/howard/app/ti/msp430-gcc/bin/../lib/gcc/msp430-elf/8.3.0/../../../../msp430-elf/lib/libc.a(lib_a-nano-mallocr.o) (_sbrk_r)
/home/howard/app/ti/msp430-gcc/bin/../lib/gcc/msp430-elf/8.3.0/../../../../msp430-elf/lib/libc.a(lib_a-signal.o)
                              /home/howard/app/ti/msp430-gcc/bin/../lib/gcc/msp430-elf/8.3.0/../../../../msp430-elf/lib/libc.a(lib_a-abort.o) (raise)
/home/howard/app/ti/msp430-gcc/bin/../lib/gcc/msp430-elf/8.3.0/../../../../msp430-elf/lib/libc.a(lib_a-signalr.o)
                              /home/howard/app/ti/msp430-gcc/bin/../lib/gcc/msp430-elf/8.3.0/../../../../msp430-elf/lib/libc.a(lib_a-signal.o) (_kill_r)
/home/howard/app/ti/msp430-gcc/bin/../lib/gcc/msp430-elf/8.3.0/../../../../msp430-elf/lib/libc.a(lib_a-sprintf.o)
                              message.o (sprintf)
/home/howard/app/ti/msp430-gcc/bin/../lib/gcc/msp430-elf/8.3.0/../../../../msp430-elf/lib/libc.a(lib_a-strchr.o)
                              blueTooth.o (strchr)
/home/howard/app/ti/msp430-gcc/bin/../lib/gcc/msp430-elf/8.3.0/../../../../msp430-elf/lib/libc.a(lib_a-strlen.o)
                              /home/howard/app/ti/msp430-gcc/bin/../lib/gcc/msp430-elf/8.3.0/../../../../msp430-elf/lib/libc.a(lib_a-puts.o) (strlen)
/home/howard/app/ti/msp430-gcc/bin/../lib/gcc/msp430-elf/8.3.0/../../../../msp430-elf/lib/libc.a(lib_a-strstr.o)
                              blueTooth.o (strstr)
/home/howard/app/ti/msp430-gcc/bin/../lib/gcc/msp430-elf/8.3.0/../../../../msp430-elf/lib/libc.a(lib_a-strtod.o)
                              /home/howard/app/ti/msp430-gcc/bin/../lib/gcc/msp430-elf/8.3.0/../../../../msp430-elf/lib/libc.a(lib_a-atof.o) (strtod)
/home/howard/app/ti/msp430-gcc/bin/../lib/gcc/msp430-elf/8.3.0/../../../../msp430-elf/lib/libc.a(lib_a-strtok.o)
                              wifi_config.o (strtok)
/home/howard/app/ti/msp430-gcc/bin/../lib/gcc/msp430-elf/8.3.0/../../../../msp430-elf/lib/libc.a(lib_a-strtok_r.o)
                              /home/howard/app/ti/msp430-gcc/bin/../lib/gcc/msp430-elf/8.3.0/../../../../msp430-elf/lib/libc.a(lib_a-strtok.o) (__strtok_r)
/home/howard/app/ti/msp430-gcc/bin/../lib/gcc/msp430-elf/8.3.0/../../../../msp430-elf/lib/libc.a(lib_a-strtol.o)
                              /home/howard/app/ti/msp430-gcc/bin/../lib/gcc/msp430-elf/8.3.0/../../../../msp430-elf/lib/libc.a(lib_a-atoi.o) (_strtol_r)
/home/howard/app/ti/msp430-gcc/bin/../lib/gcc/msp430-elf/8.3.0/../../../../msp430-elf/lib/libc.a(lib_a-wbuf.o)
                              /home/howard/app/ti/msp430-gcc/bin/../lib/gcc/msp430-elf/8.3.0/../../../../msp430-elf/lib/libc.a(lib_a-putc.o) (__swbuf_r)
/home/howard/app/ti/msp430-gcc/bin/../lib/gcc/msp430-elf/8.3.0/../../../../msp430-elf/lib/libc.a(lib_a-wsetup.o)
                              /home/howard/app/ti/msp430-gcc/bin/../lib/gcc/msp430-elf/8.3.0/../../../../msp430-elf/lib/libc.a(lib_a-wbuf.o) (__swsetup_r)
/home/howard/app/ti/msp430-gcc/bin/../lib/gcc/msp430-elf/8.3.0/../../../../msp430-elf/lib/libc.a(lib_a-ctype_.o)
                              /home/howard/app/ti/msp430-gcc/bin/../lib/gcc/msp430-elf/8.3.0/../../../../msp430-elf/lib/libc.a(lib_a-strtol.o) (__ctype_ptr__)
/home/howard/app/ti/msp430-gcc/bin/../lib/gcc/msp430-elf/8.3.0/../../../../msp430-elf/lib/libc.a(lib_a-fflush.o)
                              /home/howard/app/ti/msp430-gcc/bin/../lib/gcc/msp430-elf/8.3.0/../../../../msp430-elf/lib/libc.a(lib_a-wbuf.o) (_fflush_r)
/home/howard/app/ti/msp430-gcc/bin/../lib/gcc/msp430-elf/8.3.0/../../../../msp430-elf/lib/libc.a(lib_a-findfp.o)
                              /home/howard/app/ti/msp430-gcc/bin/../lib/gcc/msp430-elf/8.3.0/../../../../msp430-elf/lib/libc.a(lib_a-printf.o) (__sinit)
/home/howard/app/ti/msp430-gcc/bin/../lib/gcc/msp430-elf/8.3.0/../../../../msp430-elf/lib/libc.a(lib_a-fvwrite.o)
                              /home/howard/app/ti/msp430-gcc/bin/../lib/gcc/msp430-elf/8.3.0/../../../../msp430-elf/lib/libc.a(lib_a-puts.o) (__sfvwrite_r)
/home/howard/app/ti/msp430-gcc/bin/../lib/gcc/msp430-elf/8.3.0/../../../../msp430-elf/lib/libc.a(lib_a-fwalk.o)
                              /home/howard/app/ti/msp430-gcc/bin/../lib/gcc/msp430-elf/8.3.0/../../../../msp430-elf/lib/libc.a(lib_a-findfp.o) (_fwalk)
/home/howard/app/ti/msp430-gcc/bin/../lib/gcc/msp430-elf/8.3.0/../../../../msp430-elf/lib/libc.a(lib_a-gdtoa-gethex.o)
                              /home/howard/app/ti/msp430-gcc/bin/../lib/gcc/msp430-elf/8.3.0/../../../../msp430-elf/lib/libc.a(lib_a-strtod.o) (__gethex)
/home/howard/app/ti/msp430-gcc/bin/../lib/gcc/msp430-elf/8.3.0/../../../../msp430-elf/lib/libc.a(lib_a-gdtoa-hexnan.o)
                              /home/howard/app/ti/msp430-gcc/bin/../lib/gcc/msp430-elf/8.3.0/../../../../msp430-elf/lib/libc.a(lib_a-strtod.o) (__match)
/home/howard/app/ti/msp430-gcc/bin/../lib/gcc/msp430-elf/8.3.0/../../../../msp430-elf/lib/libc.a(lib_a-impure.o)
                              /home/howard/app/ti/msp430-gcc/bin/../lib/gcc/msp430-elf/8.3.0/../../../../msp430-elf/lib/libc.a(lib_a-fflush.o) (_global_impure_ptr)
/home/howard/app/ti/msp430-gcc/bin/../lib/gcc/msp430-elf/8.3.0/../../../../msp430-elf/lib/libc.a(lib_a-locale.o)
                              /home/howard/app/ti/msp430-gcc/bin/../lib/gcc/msp430-elf/8.3.0/../../../../msp430-elf/lib/libc.a(lib_a-strtod.o) (_localeconv_r)
/home/howard/app/ti/msp430-gcc/bin/../lib/gcc/msp430-elf/8.3.0/../../../../msp430-elf/lib/libc.a(lib_a-makebuf.o)
                              /home/howard/app/ti/msp430-gcc/bin/../lib/gcc/msp430-elf/8.3.0/../../../../msp430-elf/lib/libc.a(lib_a-wsetup.o) (__smakebuf_r)
/home/howard/app/ti/msp430-gcc/bin/../lib/gcc/msp430-elf/8.3.0/../../../../msp430-elf/lib/libc.a(lib_a-memchr.o)
                              /home/howard/app/ti/msp430-gcc/bin/../lib/gcc/msp430-elf/8.3.0/../../../../msp430-elf/lib/libc.a(lib_a-fvwrite.o) (memchr)
/home/howard/app/ti/msp430-gcc/bin/../lib/gcc/msp430-elf/8.3.0/../../../../msp430-elf/lib/libc.a(lib_a-memmove.o)
                              /home/howard/app/ti/msp430-gcc/bin/../lib/gcc/msp430-elf/8.3.0/../../../../msp430-elf/lib/libc.a(lib_a-fvwrite.o) (memmove)
/home/howard/app/ti/msp430-gcc/bin/../lib/gcc/msp430-elf/8.3.0/../../../../msp430-elf/lib/libc.a(lib_a-mprec.o)
                              /home/howard/app/ti/msp430-gcc/bin/../lib/gcc/msp430-elf/8.3.0/../../../../msp430-elf/lib/libc.a(lib_a-strtod.o) (_Balloc)
/home/howard/app/ti/msp430-gcc/bin/../lib/gcc/msp430-elf/8.3.0/../../../../msp430-elf/lib/libc.a(lib_a-nano-callocr.o)
                              /home/howard/app/ti/msp430-gcc/bin/../lib/gcc/msp430-elf/8.3.0/../../../../msp430-elf/lib/libc.a(lib_a-mprec.o) (_calloc_r)
/home/howard/app/ti/msp430-gcc/bin/../lib/gcc/msp430-elf/8.3.0/../../../../msp430-elf/lib/libc.a(lib_a-nano-reallocr.o)
                              /home/howard/app/ti/msp430-gcc/bin/../lib/gcc/msp430-elf/8.3.0/../../../../msp430-elf/lib/libc.a(lib_a-fvwrite.o) (_realloc_r)
/home/howard/app/ti/msp430-gcc/bin/../lib/gcc/msp430-elf/8.3.0/../../../../msp430-elf/lib/libc.a(lib_a-nano-svfprintf.o)
                              /home/howard/app/ti/msp430-gcc/bin/../lib/gcc/msp430-elf/8.3.0/../../../../msp430-elf/lib/libc.a(lib_a-sprintf.o) (_svfprintf_r)
/home/howard/app/ti/msp430-gcc/bin/../lib/gcc/msp430-elf/8.3.0/../../../../msp430-elf/lib/libc.a(lib_a-nano-vfprintf_i.o)
                              /home/howard/app/ti/msp430-gcc/bin/../lib/gcc/msp430-elf/8.3.0/../../../../msp430-elf/lib/libc.a(lib_a-nano-svfprintf.o) (_printf_i)
/home/howard/app/ti/msp430-gcc/bin/../lib/gcc/msp430-elf/8.3.0/../../../../msp430-elf/lib/libc.a(lib_a-nano-vfprintf.o)
                              /home/howard/app/ti/msp430-gcc/bin/../lib/gcc/msp430-elf/8.3.0/../../../../msp430-elf/lib/libc.a(lib_a-printf.o) (_vfprintf_r)
/home/howard/app/ti/msp430-gcc/bin/../lib/gcc/msp430-elf/8.3.0/../../../../msp430-elf/lib/libc.a(lib_a-reent.o)
                              /home/howard/app/ti/msp430-gcc/bin/../lib/gcc/msp430-elf/8.3.0/../../../../msp430-elf/lib/libc.a(lib_a-sbrkr.o) (errno)
/home/howard/app/ti/msp430-gcc/bin/../lib/gcc/msp430-elf/8.3.0/../../../../msp430-elf/lib/libc.a(lib_a-sf_nan.o)
                              /home/howard/app/ti/msp430-gcc/bin/../lib/gcc/msp430-elf/8.3.0/../../../../msp430-elf/lib/libc.a(lib_a-strtod.o) (nanf)
/home/howard/app/ti/msp430-gcc/bin/../lib/gcc/msp430-elf/8.3.0/../../../../msp430-elf/lib/libc.a(lib_a-stdio.o)
                              /home/howard/app/ti/msp430-gcc/bin/../lib/gcc/msp430-elf/8.3.0/../../../../msp430-elf/lib/libc.a(lib_a-findfp.o) (__sread)
/home/howard/app/ti/msp430-gcc/bin/../lib/gcc/msp430-elf/8.3.0/../../../../msp430-elf/lib/libc.a(lib_a-strcmp.o)
                              /home/howard/app/ti/msp430-gcc/bin/../lib/gcc/msp430-elf/8.3.0/../../../../msp430-elf/lib/libc.a(lib_a-locale.o) (strcmp)
/home/howard/app/ti/msp430-gcc/bin/../lib/gcc/msp430-elf/8.3.0/../../../../msp430-elf/lib/libc.a(lib_a-strncmp.o)
                              /home/howard/app/ti/msp430-gcc/bin/../lib/gcc/msp430-elf/8.3.0/../../../../msp430-elf/lib/libc.a(lib_a-strtod.o) (strncmp)
/home/howard/app/ti/msp430-gcc/bin/../lib/gcc/msp430-elf/8.3.0/../../../../msp430-elf/lib/libc.a(lib_a-writer.o)
                              /home/howard/app/ti/msp430-gcc/bin/../lib/gcc/msp430-elf/8.3.0/../../../../msp430-elf/lib/libc.a(lib_a-stdio.o) (_write_r)
/home/howard/app/ti/msp430-gcc/bin/../lib/gcc/msp430-elf/8.3.0/../../../../msp430-elf/lib/libc.a(lib_a-closer.o)
                              /home/howard/app/ti/msp430-gcc/bin/../lib/gcc/msp430-elf/8.3.0/../../../../msp430-elf/lib/libc.a(lib_a-stdio.o) (_close_r)
/home/howard/app/ti/msp430-gcc/bin/../lib/gcc/msp430-elf/8.3.0/../../../../msp430-elf/lib/libc.a(lib_a-fclose.o)
                              /home/howard/app/ti/msp430-gcc/bin/../lib/gcc/msp430-elf/8.3.0/../../../../msp430-elf/lib/libc.a(lib_a-findfp.o) (_fclose_r)
/home/howard/app/ti/msp430-gcc/bin/../lib/gcc/msp430-elf/8.3.0/../../../../msp430-elf/lib/libc.a(lib_a-fputwc.o)
                              /home/howard/app/ti/msp430-gcc/bin/../lib/gcc/msp430-elf/8.3.0/../../../../msp430-elf/lib/libc.a(lib_a-nano-vfprintf.o) (_fputwc_r)
/home/howard/app/ti/msp430-gcc/bin/../lib/gcc/msp430-elf/8.3.0/../../../../msp430-elf/lib/libc.a(lib_a-fstatr.o)
                              /home/howard/app/ti/msp430-gcc/bin/../lib/gcc/msp430-elf/8.3.0/../../../../msp430-elf/lib/libc.a(lib_a-makebuf.o) (_fstat_r)
/home/howard/app/ti/msp430-gcc/bin/../lib/gcc/msp430-elf/8.3.0/../../../../msp430-elf/lib/libc.a(lib_a-isattyr.o)
                              /home/howard/app/ti/msp430-gcc/bin/../lib/gcc/msp430-elf/8.3.0/../../../../msp430-elf/lib/libc.a(lib_a-makebuf.o) (_isatty_r)
/home/howard/app/ti/msp430-gcc/bin/../lib/gcc/msp430-elf/8.3.0/../../../../msp430-elf/lib/libc.a(lib_a-lseekr.o)
                              /home/howard/app/ti/msp430-gcc/bin/../lib/gcc/msp430-elf/8.3.0/../../../../msp430-elf/lib/libc.a(lib_a-stdio.o) (_lseek_r)
/home/howard/app/ti/msp430-gcc/bin/../lib/gcc/msp430-elf/8.3.0/../../../../msp430-elf/lib/libc.a(lib_a-nano-msizer.o)
                              /home/howard/app/ti/msp430-gcc/bin/../lib/gcc/msp430-elf/8.3.0/../../../../msp430-elf/lib/libc.a(lib_a-nano-reallocr.o) (_malloc_usable_size_r)
/home/howard/app/ti/msp430-gcc/bin/../lib/gcc/msp430-elf/8.3.0/../../../../msp430-elf/lib/libc.a(lib_a-readr.o)
                              /home/howard/app/ti/msp430-gcc/bin/../lib/gcc/msp430-elf/8.3.0/../../../../msp430-elf/lib/libc.a(lib_a-stdio.o) (_read_r)
/home/howard/app/ti/msp430-gcc/bin/../lib/gcc/msp430-elf/8.3.0/../../../../msp430-elf/lib/libc.a(lib_a-wcrtomb.o)
                              /home/howard/app/ti/msp430-gcc/bin/../lib/gcc/msp430-elf/8.3.0/../../../../msp430-elf/lib/libc.a(lib_a-fputwc.o) (_wcrtomb_r)
/home/howard/app/ti/msp430-gcc/bin/../lib/gcc/msp430-elf/8.3.0/../../../../msp430-elf/lib/libc.a(lib_a-wctomb_r.o)
                              /home/howard/app/ti/msp430-gcc/bin/../lib/gcc/msp430-elf/8.3.0/../../../../msp430-elf/lib/libc.a(lib_a-wcrtomb.o) (__wctomb)
/home/howard/app/ti/msp430-gcc/bin/../lib/gcc/msp430-elf/8.3.0/libgcc.a(_muldi3.o)
                              /home/howard/app/ti/msp430-gcc/bin/../lib/gcc/msp430-elf/8.3.0/libmul_f5.a(lib2hw_mul_f5.o) (__mspabi_mpyll)
/home/howard/app/ti/msp430-gcc/bin/../lib/gcc/msp430-elf/8.3.0/libgcc.a(_fixunsdfsi.o)
                              /home/howard/app/ti/msp430-gcc/bin/../lib/gcc/msp430-elf/8.3.0/../../../../msp430-elf/lib/libc.a(lib_a-strtod.o) (__mspabi_fixdul)
/home/howard/app/ti/msp430-gcc/bin/../lib/gcc/msp430-elf/8.3.0/libgcc.a(_eq_df.o)
                              /home/howard/app/ti/msp430-gcc/bin/../lib/gcc/msp430-elf/8.3.0/../../../../msp430-elf/lib/libc.a(lib_a-strtod.o) (__eqdf2)
/home/howard/app/ti/msp430-gcc/bin/../lib/gcc/msp430-elf/8.3.0/libgcc.a(_gt_df.o)
                              /home/howard/app/ti/msp430-gcc/bin/../lib/gcc/msp430-elf/8.3.0/../../../../msp430-elf/lib/libc.a(lib_a-strtod.o) (__gtdf2)
/home/howard/app/ti/msp430-gcc/bin/../lib/gcc/msp430-elf/8.3.0/libgcc.a(_ge_df.o)
                              /home/howard/app/ti/msp430-gcc/bin/../lib/gcc/msp430-elf/8.3.0/libgcc.a(_fixunsdfsi.o) (__gedf2)
/home/howard/app/ti/msp430-gcc/bin/../lib/gcc/msp430-elf/8.3.0/libgcc.a(_le_df.o)
                              /home/howard/app/ti/msp430-gcc/bin/../lib/gcc/msp430-elf/8.3.0/../../../../msp430-elf/lib/libc.a(lib_a-strtod.o) (__ledf2)
/home/howard/app/ti/msp430-gcc/bin/../lib/gcc/msp430-elf/8.3.0/libgcc.a(_unord_df.o)
                              /home/howard/app/ti/msp430-gcc/bin/../lib/gcc/msp430-elf/8.3.0/../../../../msp430-elf/lib/libc.a(lib_a-strtod.o) (__unorddf2)
/home/howard/app/ti/msp430-gcc/bin/../lib/gcc/msp430-elf/8.3.0/libgcc.a(_usi_to_df.o)
                              /home/howard/app/ti/msp430-gcc/bin/../lib/gcc/msp430-elf/8.3.0/../../../../msp430-elf/lib/libc.a(lib_a-strtod.o) (__mspabi_fltuld)
/home/howard/app/ti/msp430-gcc/bin/../lib/gcc/msp430-elf/8.3.0/../../../../msp430-elf/lib/libcrt.a(crt_bss.o)
                              common.o (__crt0_init_bss)
/home/howard/app/ti/msp430-gcc/bin/../lib/gcc/msp430-elf/8.3.0/../../../../msp430-elf/lib/libcrt.a(crt_movedata.o)
                              main.o (__crt0_movedata)
/home/howard/app/ti/msp430-gcc/bin/../lib/gcc/msp430-elf/8.3.0/../../../../msp430-elf/lib/libcrt.a(crt_main.o)
                              /home/howard/app/ti/msp430-gcc/bin/../lib/gcc/msp430-elf/8.3.0/../../../../msp430-elf/lib/crt0.o (__crt0_call_main)
/home/howard/app/ti/msp430-gcc/bin/../lib/gcc/msp430-elf/8.3.0/../../../../msp430-elf/lib/libnosys.a(ciosyscalls.o)
                              /home/howard/app/ti/msp430-gcc/bin/../lib/gcc/msp430-elf/8.3.0/../../../../msp430-elf/lib/libc.a(lib_a-abort.o) (_exit)
/home/howard/app/ti/msp430-gcc/bin/../lib/gcc/msp430-elf/8.3.0/../../../../msp430-elf/lib/libnosys.a(write.o)
                              /home/howard/app/ti/msp430-gcc/bin/../lib/gcc/msp430-elf/8.3.0/../../../../msp430-elf/lib/libc.a(lib_a-writer.o) (write)
/home/howard/app/ti/msp430-gcc/bin/../lib/gcc/msp430-elf/8.3.0/../../../../msp430-elf/lib/libnosys.a(sbrk.o)
                              /home/howard/app/ti/msp430-gcc/bin/../lib/gcc/msp430-elf/8.3.0/../../../../msp430-elf/lib/libc.a(lib_a-sbrkr.o) (sbrk)
/home/howard/app/ti/msp430-gcc/bin/../lib/gcc/msp430-elf/8.3.0/../../../../msp430-elf/lib/libnosys.a(cio.o)
                              /home/howard/app/ti/msp430-gcc/bin/../lib/gcc/msp430-elf/8.3.0/../../../../msp430-elf/lib/libnosys.a(write.o) (__CIOBUF__)
/home/howard/app/ti/msp430-gcc/bin/../lib/gcc/msp430-elf/8.3.0/../../../../msp430-elf/lib/libc.a(lib_a-errno.o)
                              /home/howard/app/ti/msp430-gcc/bin/../lib/gcc/msp430-elf/8.3.0/../../../../msp430-elf/lib/libnosys.a(ciosyscalls.o) (__errno)

Allocating common symbols
Common symbol       size              file

analow              0x1               common.o
testbuf             0x2               uart3.o
main_time_error     0x2               GSM.o
centerIP            0x10              GTM900C.o
uart0_test          0x2               uart0.o
UART1_Rx_Buffer     0x320             uart1.o
tthex               0x1               common.o
errno               0x2               /home/howard/app/ti/msp430-gcc/bin/../lib/gcc/msp430-elf/8.3.0/../../../../msp430-elf/lib/libc.a(lib_a-reent.o)
anahigh             0x1               common.o
UART3_Rx_BufLen     0x4               uart3.o
g_HydrologyUpHeader
                    0x11              message.o
g_HydrologyMsg      0xb               message.o
g_pulse_range       0xc               Sampler.o
pulsemedium         0x1               common.o
alert_str           0x3c              Sampler.o
TelecomOperater     0x2               GTM900C.o
UART3_Rx_Buffer     0x320             uart3.o
UART0_Rx_Buffer     0x285             uart0.o
UART1_Rx_BufLen     0x4               uart1.o
i                   0x2               Sampler.o
g_HydrologyDownHeader
                    0x11              message.o
test                0x3               uart0.o
s_alert_flag        0x10              Sampler.o
centerPort          0x7               GTM900C.o
vtlow               0x1               common.o
s_MsgArray          0x1e              GSM.o
g_work_mode         0x2               GSM.o
vthigh              0x1               common.o
pulsehigh           0x1               common.o
inputPara           0x50              message.o
switcher            0x1               common.o
pulselow            0x1               common.o
UART0_Rx_BufLen     0x6               uart0.o

Discarded input sections

 .text          0x0000000000000000        0x0 /home/howard/app/ti/msp430-gcc/bin/../lib/gcc/msp430-elf/8.3.0/../../../../msp430-elf/lib/crt0.o
 .data          0x0000000000000000        0x0 /home/howard/app/ti/msp430-gcc/bin/../lib/gcc/msp430-elf/8.3.0/../../../../msp430-elf/lib/crt0.o
 .bss           0x0000000000000000        0x0 /home/howard/app/ti/msp430-gcc/bin/../lib/gcc/msp430-elf/8.3.0/../../../../msp430-elf/lib/crt0.o
 .text          0x0000000000000000        0x0 /home/howard/app/ti/msp430-gcc/bin/../lib/gcc/msp430-elf/8.3.0/crtbegin_no_eh.o
 .data          0x0000000000000000        0x0 /home/howard/app/ti/msp430-gcc/bin/../lib/gcc/msp430-elf/8.3.0/crtbegin_no_eh.o
 .bss           0x0000000000000000        0x0 /home/howard/app/ti/msp430-gcc/bin/../lib/gcc/msp430-elf/8.3.0/crtbegin_no_eh.o
 .bss           0x0000000000000000        0x0 main.o
 .bss           0x0000000000000000        0x0 adc.o
 .text          0x0000000000000000      0x168 debug.o
 .data          0x0000000000000000        0x0 debug.o
 .bss           0x0000000000000000        0x0 debug.o
 .rodata        0x0000000000000000       0x12 debug.o
 .text          0x0000000000000000        0x0 flash.o
 .data          0x0000000000000000        0x0 flash.o
 .bss           0x0000000000000000        0x0 flash.o
 .bss           0x0000000000000000        0x0 GTM900C.o
 .text          0x0000000000000000      0x226 packet.o
 .data          0x0000000000000000        0x8 packet.o
 .bss           0x0000000000000000        0x0 packet.o
 .rodata        0x0000000000000000        0xf packet.o
 .data          0x0000000000000000        0x0 rom.o
 .bss           0x0000000000000000        0x0 rom.o
 .data          0x0000000000000000        0x0 timer.o
 .bss           0x0000000000000000        0x0 uart_config.o
 .bss           0x0000000000000000        0x0 blueTooth.o
 .data          0x0000000000000000        0x0 Console.o
 .text          0x0000000000000000     0x2360 dtu.o
 .data          0x0000000000000000        0x2 dtu.o
 .bss           0x0000000000000000        0x0 dtu.o
 .rodata        0x0000000000000000      0x447 dtu.o
 .bss           0x0000000000000000        0x0 GSM.o
 .data          0x0000000000000000        0x0 led.o
 .bss           0x0000000000000000        0x0 led.o
 .text          0x0000000000000000      0x13e reportbinding.o
 .data          0x0000000000000000       0xd4 reportbinding.o
 .bss           0x0000000000000000        0x0 reportbinding.o
 .rodata        0x0000000000000000       0x3e reportbinding.o
 .bss           0x0000000000000000        0x0 rtc.o
 .bss           0x0000000000000000        0x0 store.o
 .bss           0x0000000000000000        0x0 wifi_config.o
 .text          0x0000000000000000        0x0 /home/howard/app/ti/msp430-gcc/bin/../lib/gcc/msp430-elf/8.3.0/libgcc.a(_addsub_sf.o)
 .data          0x0000000000000000        0x0 /home/howard/app/ti/msp430-gcc/bin/../lib/gcc/msp430-elf/8.3.0/libgcc.a(_addsub_sf.o)
 .bss           0x0000000000000000        0x0 /home/howard/app/ti/msp430-gcc/bin/../lib/gcc/msp430-elf/8.3.0/libgcc.a(_addsub_sf.o)
 .text._fpadd_parts
                0x0000000000000000      0x250 /home/howard/app/ti/msp430-gcc/bin/../lib/gcc/msp430-elf/8.3.0/libgcc.a(_addsub_sf.o)
 .text.__addsf3
                0x0000000000000000       0x4e /home/howard/app/ti/msp430-gcc/bin/../lib/gcc/msp430-elf/8.3.0/libgcc.a(_addsub_sf.o)
 .text.__subsf3
                0x0000000000000000       0x52 /home/howard/app/ti/msp430-gcc/bin/../lib/gcc/msp430-elf/8.3.0/libgcc.a(_addsub_sf.o)
 .text          0x0000000000000000        0x0 /home/howard/app/ti/msp430-gcc/bin/../lib/gcc/msp430-elf/8.3.0/libgcc.a(_mul_sf.o)
 .data          0x0000000000000000        0x0 /home/howard/app/ti/msp430-gcc/bin/../lib/gcc/msp430-elf/8.3.0/libgcc.a(_mul_sf.o)
 .bss           0x0000000000000000        0x0 /home/howard/app/ti/msp430-gcc/bin/../lib/gcc/msp430-elf/8.3.0/libgcc.a(_mul_sf.o)
 .text.__mulsf3
                0x0000000000000000      0x24c /home/howard/app/ti/msp430-gcc/bin/../lib/gcc/msp430-elf/8.3.0/libgcc.a(_mul_sf.o)
 .text          0x0000000000000000        0x0 /home/howard/app/ti/msp430-gcc/bin/../lib/gcc/msp430-elf/8.3.0/libgcc.a(_div_sf.o)
 .data          0x0000000000000000        0x0 /home/howard/app/ti/msp430-gcc/bin/../lib/gcc/msp430-elf/8.3.0/libgcc.a(_div_sf.o)
 .bss           0x0000000000000000        0x0 /home/howard/app/ti/msp430-gcc/bin/../lib/gcc/msp430-elf/8.3.0/libgcc.a(_div_sf.o)
 .text.__divsf3
                0x0000000000000000      0x146 /home/howard/app/ti/msp430-gcc/bin/../lib/gcc/msp430-elf/8.3.0/libgcc.a(_div_sf.o)
 .text          0x0000000000000000        0x0 /home/howard/app/ti/msp430-gcc/bin/../lib/gcc/msp430-elf/8.3.0/libgcc.a(_gt_sf.o)
 .data          0x0000000000000000        0x0 /home/howard/app/ti/msp430-gcc/bin/../lib/gcc/msp430-elf/8.3.0/libgcc.a(_gt_sf.o)
 .bss           0x0000000000000000        0x0 /home/howard/app/ti/msp430-gcc/bin/../lib/gcc/msp430-elf/8.3.0/libgcc.a(_gt_sf.o)
 .text.__gtsf2  0x0000000000000000       0x58 /home/howard/app/ti/msp430-gcc/bin/../lib/gcc/msp430-elf/8.3.0/libgcc.a(_gt_sf.o)
 .text          0x0000000000000000        0x0 /home/howard/app/ti/msp430-gcc/bin/../lib/gcc/msp430-elf/8.3.0/libgcc.a(_lt_sf.o)
 .data          0x0000000000000000        0x0 /home/howard/app/ti/msp430-gcc/bin/../lib/gcc/msp430-elf/8.3.0/libgcc.a(_lt_sf.o)
 .bss           0x0000000000000000        0x0 /home/howard/app/ti/msp430-gcc/bin/../lib/gcc/msp430-elf/8.3.0/libgcc.a(_lt_sf.o)
 .text.__ltsf2  0x0000000000000000       0x58 /home/howard/app/ti/msp430-gcc/bin/../lib/gcc/msp430-elf/8.3.0/libgcc.a(_lt_sf.o)
 .text          0x0000000000000000        0x0 /home/howard/app/ti/msp430-gcc/bin/../lib/gcc/msp430-elf/8.3.0/libgcc.a(_si_to_sf.o)
 .data          0x0000000000000000        0x0 /home/howard/app/ti/msp430-gcc/bin/../lib/gcc/msp430-elf/8.3.0/libgcc.a(_si_to_sf.o)
 .bss           0x0000000000000000        0x0 /home/howard/app/ti/msp430-gcc/bin/../lib/gcc/msp430-elf/8.3.0/libgcc.a(_si_to_sf.o)
 .text.__floatsisf
                0x0000000000000000       0x9c /home/howard/app/ti/msp430-gcc/bin/../lib/gcc/msp430-elf/8.3.0/libgcc.a(_si_to_sf.o)
 .text          0x0000000000000000        0x0 /home/howard/app/ti/msp430-gcc/bin/../lib/gcc/msp430-elf/8.3.0/libgcc.a(_sf_to_si.o)
 .data          0x0000000000000000        0x0 /home/howard/app/ti/msp430-gcc/bin/../lib/gcc/msp430-elf/8.3.0/libgcc.a(_sf_to_si.o)
 .bss           0x0000000000000000        0x0 /home/howard/app/ti/msp430-gcc/bin/../lib/gcc/msp430-elf/8.3.0/libgcc.a(_sf_to_si.o)
 .text.__fixsfsi
                0x0000000000000000       0x90 /home/howard/app/ti/msp430-gcc/bin/../lib/gcc/msp430-elf/8.3.0/libgcc.a(_sf_to_si.o)
 .text          0x0000000000000000        0x0 /home/howard/app/ti/msp430-gcc/bin/../lib/gcc/msp430-elf/8.3.0/libgcc.a(_sf_to_df.o)
 .data          0x0000000000000000        0x0 /home/howard/app/ti/msp430-gcc/bin/../lib/gcc/msp430-elf/8.3.0/libgcc.a(_sf_to_df.o)
 .bss           0x0000000000000000        0x0 /home/howard/app/ti/msp430-gcc/bin/../lib/gcc/msp430-elf/8.3.0/libgcc.a(_sf_to_df.o)
 .text          0x0000000000000000        0x0 /home/howard/app/ti/msp430-gcc/bin/../lib/gcc/msp430-elf/8.3.0/libgcc.a(_thenan_sf.o)
 .data          0x0000000000000000        0x0 /home/howard/app/ti/msp430-gcc/bin/../lib/gcc/msp430-elf/8.3.0/libgcc.a(_thenan_sf.o)
 .bss           0x0000000000000000        0x0 /home/howard/app/ti/msp430-gcc/bin/../lib/gcc/msp430-elf/8.3.0/libgcc.a(_thenan_sf.o)
 .rodata.__thenan_sf
                0x0000000000000000        0xa /home/howard/app/ti/msp430-gcc/bin/../lib/gcc/msp430-elf/8.3.0/libgcc.a(_thenan_sf.o)
 .text          0x0000000000000000        0x0 /home/howard/app/ti/msp430-gcc/bin/../lib/gcc/msp430-elf/8.3.0/libgcc.a(_addsub_df.o)
 .data          0x0000000000000000        0x0 /home/howard/app/ti/msp430-gcc/bin/../lib/gcc/msp430-elf/8.3.0/libgcc.a(_addsub_df.o)
 .bss           0x0000000000000000        0x0 /home/howard/app/ti/msp430-gcc/bin/../lib/gcc/msp430-elf/8.3.0/libgcc.a(_addsub_df.o)
 .text.__adddf3
                0x0000000000000000       0x62 /home/howard/app/ti/msp430-gcc/bin/../lib/gcc/msp430-elf/8.3.0/libgcc.a(_addsub_df.o)
 .text          0x0000000000000000        0x0 /home/howard/app/ti/msp430-gcc/bin/../lib/gcc/msp430-elf/8.3.0/libgcc.a(_mul_df.o)
 .data          0x0000000000000000        0x0 /home/howard/app/ti/msp430-gcc/bin/../lib/gcc/msp430-elf/8.3.0/libgcc.a(_mul_df.o)
 .bss           0x0000000000000000        0x0 /home/howard/app/ti/msp430-gcc/bin/../lib/gcc/msp430-elf/8.3.0/libgcc.a(_mul_df.o)
 .text          0x0000000000000000        0x0 /home/howard/app/ti/msp430-gcc/bin/../lib/gcc/msp430-elf/8.3.0/libgcc.a(_div_df.o)
 .data          0x0000000000000000        0x0 /home/howard/app/ti/msp430-gcc/bin/../lib/gcc/msp430-elf/8.3.0/libgcc.a(_div_df.o)
 .bss           0x0000000000000000        0x0 /home/howard/app/ti/msp430-gcc/bin/../lib/gcc/msp430-elf/8.3.0/libgcc.a(_div_df.o)
 .text.__divdf3
                0x0000000000000000      0x300 /home/howard/app/ti/msp430-gcc/bin/../lib/gcc/msp430-elf/8.3.0/libgcc.a(_div_df.o)
 .text          0x0000000000000000        0x0 /home/howard/app/ti/msp430-gcc/bin/../lib/gcc/msp430-elf/8.3.0/libgcc.a(_lt_df.o)
 .data          0x0000000000000000        0x0 /home/howard/app/ti/msp430-gcc/bin/../lib/gcc/msp430-elf/8.3.0/libgcc.a(_lt_df.o)
 .bss           0x0000000000000000        0x0 /home/howard/app/ti/msp430-gcc/bin/../lib/gcc/msp430-elf/8.3.0/libgcc.a(_lt_df.o)
 .text.__ltdf2  0x0000000000000000       0x74 /home/howard/app/ti/msp430-gcc/bin/../lib/gcc/msp430-elf/8.3.0/libgcc.a(_lt_df.o)
 .text          0x0000000000000000        0x0 /home/howard/app/ti/msp430-gcc/bin/../lib/gcc/msp430-elf/8.3.0/libgcc.a(_si_to_df.o)
 .data          0x0000000000000000        0x0 /home/howard/app/ti/msp430-gcc/bin/../lib/gcc/msp430-elf/8.3.0/libgcc.a(_si_to_df.o)
 .bss           0x0000000000000000        0x0 /home/howard/app/ti/msp430-gcc/bin/../lib/gcc/msp430-elf/8.3.0/libgcc.a(_si_to_df.o)
 .text          0x0000000000000000        0x0 /home/howard/app/ti/msp430-gcc/bin/../lib/gcc/msp430-elf/8.3.0/libgcc.a(_df_to_si.o)
 .data          0x0000000000000000        0x0 /home/howard/app/ti/msp430-gcc/bin/../lib/gcc/msp430-elf/8.3.0/libgcc.a(_df_to_si.o)
 .bss           0x0000000000000000        0x0 /home/howard/app/ti/msp430-gcc/bin/../lib/gcc/msp430-elf/8.3.0/libgcc.a(_df_to_si.o)
 .text          0x0000000000000000        0x0 /home/howard/app/ti/msp430-gcc/bin/../lib/gcc/msp430-elf/8.3.0/libgcc.a(_make_df.o)
 .data          0x0000000000000000        0x0 /home/howard/app/ti/msp430-gcc/bin/../lib/gcc/msp430-elf/8.3.0/libgcc.a(_make_df.o)
 .bss           0x0000000000000000        0x0 /home/howard/app/ti/msp430-gcc/bin/../lib/gcc/msp430-elf/8.3.0/libgcc.a(_make_df.o)
 .text          0x0000000000000000        0x0 /home/howard/app/ti/msp430-gcc/bin/../lib/gcc/msp430-elf/8.3.0/libgcc.a(_df_to_sf.o)
 .data          0x0000000000000000        0x0 /home/howard/app/ti/msp430-gcc/bin/../lib/gcc/msp430-elf/8.3.0/libgcc.a(_df_to_sf.o)
 .bss           0x0000000000000000        0x0 /home/howard/app/ti/msp430-gcc/bin/../lib/gcc/msp430-elf/8.3.0/libgcc.a(_df_to_sf.o)
 .text          0x0000000000000000        0x0 /home/howard/app/ti/msp430-gcc/bin/../lib/gcc/msp430-elf/8.3.0/libgcc.a(_thenan_df.o)
 .data          0x0000000000000000        0x0 /home/howard/app/ti/msp430-gcc/bin/../lib/gcc/msp430-elf/8.3.0/libgcc.a(_thenan_df.o)
 .bss           0x0000000000000000        0x0 /home/howard/app/ti/msp430-gcc/bin/../lib/gcc/msp430-elf/8.3.0/libgcc.a(_thenan_df.o)
 .text          0x0000000000000000        0x0 /home/howard/app/ti/msp430-gcc/bin/../lib/gcc/msp430-elf/8.3.0/libgcc.a(lib2divHI.o)
 .data          0x0000000000000000        0x0 /home/howard/app/ti/msp430-gcc/bin/../lib/gcc/msp430-elf/8.3.0/libgcc.a(lib2divHI.o)
 .bss           0x0000000000000000        0x0 /home/howard/app/ti/msp430-gcc/bin/../lib/gcc/msp430-elf/8.3.0/libgcc.a(lib2divHI.o)
 .text          0x0000000000000000        0x4 /home/howard/app/ti/msp430-gcc/bin/../lib/gcc/msp430-elf/8.3.0/libgcc.a(lib2divSI.o)
 .data          0x0000000000000000        0x0 /home/howard/app/ti/msp430-gcc/bin/../lib/gcc/msp430-elf/8.3.0/libgcc.a(lib2divSI.o)
 .bss           0x0000000000000000        0x0 /home/howard/app/ti/msp430-gcc/bin/../lib/gcc/msp430-elf/8.3.0/libgcc.a(lib2divSI.o)
 .text.__modsi3
                0x0000000000000000       0x58 /home/howard/app/ti/msp430-gcc/bin/../lib/gcc/msp430-elf/8.3.0/libgcc.a(lib2divSI.o)
 .text          0x0000000000000000        0x0 /home/howard/app/ti/msp430-gcc/bin/../lib/gcc/msp430-elf/8.3.0/libgcc.a(slli.o)
 .data          0x0000000000000000        0x0 /home/howard/app/ti/msp430-gcc/bin/../lib/gcc/msp430-elf/8.3.0/libgcc.a(slli.o)
 .bss           0x0000000000000000        0x0 /home/howard/app/ti/msp430-gcc/bin/../lib/gcc/msp430-elf/8.3.0/libgcc.a(slli.o)
 .text.__mspabi_slli_n
                0x0000000000000000       0x20 /home/howard/app/ti/msp430-gcc/bin/../lib/gcc/msp430-elf/8.3.0/libgcc.a(slli.o)
 .text          0x0000000000000000        0x0 /home/howard/app/ti/msp430-gcc/bin/../lib/gcc/msp430-elf/8.3.0/libgcc.a(srai.o)
 .data          0x0000000000000000        0x0 /home/howard/app/ti/msp430-gcc/bin/../lib/gcc/msp430-elf/8.3.0/libgcc.a(srai.o)
 .bss           0x0000000000000000        0x0 /home/howard/app/ti/msp430-gcc/bin/../lib/gcc/msp430-elf/8.3.0/libgcc.a(srai.o)
 .text.__mspabi_srai_n
                0x0000000000000000       0x20 /home/howard/app/ti/msp430-gcc/bin/../lib/gcc/msp430-elf/8.3.0/libgcc.a(srai.o)
 .text          0x0000000000000000        0x0 /home/howard/app/ti/msp430-gcc/bin/../lib/gcc/msp430-elf/8.3.0/libgcc.a(srli.o)
 .data          0x0000000000000000        0x0 /home/howard/app/ti/msp430-gcc/bin/../lib/gcc/msp430-elf/8.3.0/libgcc.a(srli.o)
 .bss           0x0000000000000000        0x0 /home/howard/app/ti/msp430-gcc/bin/../lib/gcc/msp430-elf/8.3.0/libgcc.a(srli.o)
 .text.__mspabi_srli
                0x0000000000000000        0xc /home/howard/app/ti/msp430-gcc/bin/../lib/gcc/msp430-elf/8.3.0/libgcc.a(srli.o)
 .text          0x0000000000000000        0x0 /home/howard/app/ti/msp430-gcc/bin/../lib/gcc/msp430-elf/8.3.0/libgcc.a(_clzsi2.o)
 .data          0x0000000000000000        0x0 /home/howard/app/ti/msp430-gcc/bin/../lib/gcc/msp430-elf/8.3.0/libgcc.a(_clzsi2.o)
 .bss           0x0000000000000000        0x0 /home/howard/app/ti/msp430-gcc/bin/../lib/gcc/msp430-elf/8.3.0/libgcc.a(_clzsi2.o)
 .text          0x0000000000000000        0x0 /home/howard/app/ti/msp430-gcc/bin/../lib/gcc/msp430-elf/8.3.0/libgcc.a(_udivdi3.o)
 .data          0x0000000000000000        0x0 /home/howard/app/ti/msp430-gcc/bin/../lib/gcc/msp430-elf/8.3.0/libgcc.a(_udivdi3.o)
 .bss           0x0000000000000000        0x0 /home/howard/app/ti/msp430-gcc/bin/../lib/gcc/msp430-elf/8.3.0/libgcc.a(_udivdi3.o)
 .text.__udivdi3
                0x0000000000000000      0x3fc /home/howard/app/ti/msp430-gcc/bin/../lib/gcc/msp430-elf/8.3.0/libgcc.a(_udivdi3.o)
 .text          0x0000000000000000        0x0 /home/howard/app/ti/msp430-gcc/bin/../lib/gcc/msp430-elf/8.3.0/libgcc.a(_pack_sf.o)
 .data          0x0000000000000000        0x0 /home/howard/app/ti/msp430-gcc/bin/../lib/gcc/msp430-elf/8.3.0/libgcc.a(_pack_sf.o)
 .bss           0x0000000000000000        0x0 /home/howard/app/ti/msp430-gcc/bin/../lib/gcc/msp430-elf/8.3.0/libgcc.a(_pack_sf.o)
 .text          0x0000000000000000        0x0 /home/howard/app/ti/msp430-gcc/bin/../lib/gcc/msp430-elf/8.3.0/libgcc.a(_unpack_sf.o)
 .data          0x0000000000000000        0x0 /home/howard/app/ti/msp430-gcc/bin/../lib/gcc/msp430-elf/8.3.0/libgcc.a(_unpack_sf.o)
 .bss           0x0000000000000000        0x0 /home/howard/app/ti/msp430-gcc/bin/../lib/gcc/msp430-elf/8.3.0/libgcc.a(_unpack_sf.o)
 .text          0x0000000000000000        0x0 /home/howard/app/ti/msp430-gcc/bin/../lib/gcc/msp430-elf/8.3.0/libgcc.a(_fpcmp_parts_sf.o)
 .data          0x0000000000000000        0x0 /home/howard/app/ti/msp430-gcc/bin/../lib/gcc/msp430-elf/8.3.0/libgcc.a(_fpcmp_parts_sf.o)
 .bss           0x0000000000000000        0x0 /home/howard/app/ti/msp430-gcc/bin/../lib/gcc/msp430-elf/8.3.0/libgcc.a(_fpcmp_parts_sf.o)
 .text.__fpcmp_parts_f
                0x0000000000000000       0xa0 /home/howard/app/ti/msp430-gcc/bin/../lib/gcc/msp430-elf/8.3.0/libgcc.a(_fpcmp_parts_sf.o)
 .text          0x0000000000000000        0x0 /home/howard/app/ti/msp430-gcc/bin/../lib/gcc/msp430-elf/8.3.0/libgcc.a(_make_sf.o)
 .data          0x0000000000000000        0x0 /home/howard/app/ti/msp430-gcc/bin/../lib/gcc/msp430-elf/8.3.0/libgcc.a(_make_sf.o)
 .bss           0x0000000000000000        0x0 /home/howard/app/ti/msp430-gcc/bin/../lib/gcc/msp430-elf/8.3.0/libgcc.a(_make_sf.o)
 .text          0x0000000000000000        0x0 /home/howard/app/ti/msp430-gcc/bin/../lib/gcc/msp430-elf/8.3.0/libgcc.a(_pack_df.o)
 .data          0x0000000000000000        0x0 /home/howard/app/ti/msp430-gcc/bin/../lib/gcc/msp430-elf/8.3.0/libgcc.a(_pack_df.o)
 .bss           0x0000000000000000        0x0 /home/howard/app/ti/msp430-gcc/bin/../lib/gcc/msp430-elf/8.3.0/libgcc.a(_pack_df.o)
 .text          0x0000000000000000        0x0 /home/howard/app/ti/msp430-gcc/bin/../lib/gcc/msp430-elf/8.3.0/libgcc.a(_unpack_df.o)
 .data          0x0000000000000000        0x0 /home/howard/app/ti/msp430-gcc/bin/../lib/gcc/msp430-elf/8.3.0/libgcc.a(_unpack_df.o)
 .bss           0x0000000000000000        0x0 /home/howard/app/ti/msp430-gcc/bin/../lib/gcc/msp430-elf/8.3.0/libgcc.a(_unpack_df.o)
 .text          0x0000000000000000        0x0 /home/howard/app/ti/msp430-gcc/bin/../lib/gcc/msp430-elf/8.3.0/libgcc.a(_fpcmp_parts_df.o)
 .data          0x0000000000000000        0x0 /home/howard/app/ti/msp430-gcc/bin/../lib/gcc/msp430-elf/8.3.0/libgcc.a(_fpcmp_parts_df.o)
 .bss           0x0000000000000000        0x0 /home/howard/app/ti/msp430-gcc/bin/../lib/gcc/msp430-elf/8.3.0/libgcc.a(_fpcmp_parts_df.o)
 .text.__fpcmp_parts_d
                0x0000000000000000       0xd0 /home/howard/app/ti/msp430-gcc/bin/../lib/gcc/msp430-elf/8.3.0/libgcc.a(_fpcmp_parts_df.o)
 .text          0x0000000000000000        0x0 /home/howard/app/ti/msp430-gcc/bin/../lib/gcc/msp430-elf/8.3.0/libgcc.a(_clz.o)
 .data          0x0000000000000000        0x0 /home/howard/app/ti/msp430-gcc/bin/../lib/gcc/msp430-elf/8.3.0/libgcc.a(_clz.o)
 .bss           0x0000000000000000        0x0 /home/howard/app/ti/msp430-gcc/bin/../lib/gcc/msp430-elf/8.3.0/libgcc.a(_clz.o)
 .text          0x0000000000000000        0x0 /home/howard/app/ti/msp430-gcc/bin/../lib/gcc/msp430-elf/8.3.0/libgcc.a(_clzdi2.o)
 .data          0x0000000000000000        0x0 /home/howard/app/ti/msp430-gcc/bin/../lib/gcc/msp430-elf/8.3.0/libgcc.a(_clzdi2.o)
 .bss           0x0000000000000000        0x0 /home/howard/app/ti/msp430-gcc/bin/../lib/gcc/msp430-elf/8.3.0/libgcc.a(_clzdi2.o)
 .text.__clzdi2
                0x0000000000000000       0x5e /home/howard/app/ti/msp430-gcc/bin/../lib/gcc/msp430-elf/8.3.0/libgcc.a(_clzdi2.o)
 .text          0x0000000000000000        0x0 /home/howard/app/ti/msp430-gcc/bin/../lib/gcc/msp430-elf/8.3.0/libmul_f5.a(lib2hw_mul_f5.o)
 .data          0x0000000000000000        0x0 /home/howard/app/ti/msp430-gcc/bin/../lib/gcc/msp430-elf/8.3.0/libmul_f5.a(lib2hw_mul_f5.o)
 .bss           0x0000000000000000        0x0 /home/howard/app/ti/msp430-gcc/bin/../lib/gcc/msp430-elf/8.3.0/libmul_f5.a(lib2hw_mul_f5.o)
 .text.__mulsihi2
                0x0000000000000000       0x18 /home/howard/app/ti/msp430-gcc/bin/../lib/gcc/msp430-elf/8.3.0/libmul_f5.a(lib2hw_mul_f5.o)
 .text.__umulsihi2
                0x0000000000000000       0x18 /home/howard/app/ti/msp430-gcc/bin/../lib/gcc/msp430-elf/8.3.0/libmul_f5.a(lib2hw_mul_f5.o)
 .text.__muldisi2
                0x0000000000000000       0x28 /home/howard/app/ti/msp430-gcc/bin/../lib/gcc/msp430-elf/8.3.0/libmul_f5.a(lib2hw_mul_f5.o)
 .text.__umuldisi2
                0x0000000000000000       0x28 /home/howard/app/ti/msp430-gcc/bin/../lib/gcc/msp430-elf/8.3.0/libmul_f5.a(lib2hw_mul_f5.o)
 .text.__muldi3
                0x0000000000000000        0x4 /home/howard/app/ti/msp430-gcc/bin/../lib/gcc/msp430-elf/8.3.0/libmul_f5.a(lib2hw_mul_f5.o)
 .text          0x0000000000000000        0x0 /home/howard/app/ti/msp430-gcc/bin/../lib/gcc/msp430-elf/8.3.0/../../../../msp430-elf/lib/libc.a(lib_a-abort.o)
 .data          0x0000000000000000        0x0 /home/howard/app/ti/msp430-gcc/bin/../lib/gcc/msp430-elf/8.3.0/../../../../msp430-elf/lib/libc.a(lib_a-abort.o)
 .bss           0x0000000000000000        0x0 /home/howard/app/ti/msp430-gcc/bin/../lib/gcc/msp430-elf/8.3.0/../../../../msp430-elf/lib/libc.a(lib_a-abort.o)
 .text          0x0000000000000000        0x0 /home/howard/app/ti/msp430-gcc/bin/../lib/gcc/msp430-elf/8.3.0/../../../../msp430-elf/lib/libc.a(lib_a-atof.o)
 .data          0x0000000000000000        0x0 /home/howard/app/ti/msp430-gcc/bin/../lib/gcc/msp430-elf/8.3.0/../../../../msp430-elf/lib/libc.a(lib_a-atof.o)
 .bss           0x0000000000000000        0x0 /home/howard/app/ti/msp430-gcc/bin/../lib/gcc/msp430-elf/8.3.0/../../../../msp430-elf/lib/libc.a(lib_a-atof.o)
 .text.atof     0x0000000000000000        0x8 /home/howard/app/ti/msp430-gcc/bin/../lib/gcc/msp430-elf/8.3.0/../../../../msp430-elf/lib/libc.a(lib_a-atof.o)
 .text          0x0000000000000000        0x0 /home/howard/app/ti/msp430-gcc/bin/../lib/gcc/msp430-elf/8.3.0/../../../../msp430-elf/lib/libc.a(lib_a-atoi.o)
 .data          0x0000000000000000        0x0 /home/howard/app/ti/msp430-gcc/bin/../lib/gcc/msp430-elf/8.3.0/../../../../msp430-elf/lib/libc.a(lib_a-atoi.o)
 .bss           0x0000000000000000        0x0 /home/howard/app/ti/msp430-gcc/bin/../lib/gcc/msp430-elf/8.3.0/../../../../msp430-elf/lib/libc.a(lib_a-atoi.o)
 .text._atoi_r  0x0000000000000000        0xc /home/howard/app/ti/msp430-gcc/bin/../lib/gcc/msp430-elf/8.3.0/../../../../msp430-elf/lib/libc.a(lib_a-atoi.o)
 .text          0x0000000000000000        0x0 /home/howard/app/ti/msp430-gcc/bin/../lib/gcc/msp430-elf/8.3.0/../../../../msp430-elf/lib/libc.a(lib_a-malloc.o)
 .data          0x0000000000000000        0x0 /home/howard/app/ti/msp430-gcc/bin/../lib/gcc/msp430-elf/8.3.0/../../../../msp430-elf/lib/libc.a(lib_a-malloc.o)
 .bss           0x0000000000000000        0x0 /home/howard/app/ti/msp430-gcc/bin/../lib/gcc/msp430-elf/8.3.0/../../../../msp430-elf/lib/libc.a(lib_a-malloc.o)
 .text          0x0000000000000000        0x0 /home/howard/app/ti/msp430-gcc/bin/../lib/gcc/msp430-elf/8.3.0/../../../../msp430-elf/lib/libc.a(lib_a-memcpy.o)
 .data          0x0000000000000000        0x0 /home/howard/app/ti/msp430-gcc/bin/../lib/gcc/msp430-elf/8.3.0/../../../../msp430-elf/lib/libc.a(lib_a-memcpy.o)
 .bss           0x0000000000000000        0x0 /home/howard/app/ti/msp430-gcc/bin/../lib/gcc/msp430-elf/8.3.0/../../../../msp430-elf/lib/libc.a(lib_a-memcpy.o)
 .text          0x0000000000000000        0x0 /home/howard/app/ti/msp430-gcc/bin/../lib/gcc/msp430-elf/8.3.0/../../../../msp430-elf/lib/libc.a(lib_a-memset.o)
 .data          0x0000000000000000        0x0 /home/howard/app/ti/msp430-gcc/bin/../lib/gcc/msp430-elf/8.3.0/../../../../msp430-elf/lib/libc.a(lib_a-memset.o)
 .bss           0x0000000000000000        0x0 /home/howard/app/ti/msp430-gcc/bin/../lib/gcc/msp430-elf/8.3.0/../../../../msp430-elf/lib/libc.a(lib_a-memset.o)
 .text          0x0000000000000000        0x0 /home/howard/app/ti/msp430-gcc/bin/../lib/gcc/msp430-elf/8.3.0/../../../../msp430-elf/lib/libc.a(lib_a-nano-freer.o)
 .data          0x0000000000000000        0x0 /home/howard/app/ti/msp430-gcc/bin/../lib/gcc/msp430-elf/8.3.0/../../../../msp430-elf/lib/libc.a(lib_a-nano-freer.o)
 .bss           0x0000000000000000        0x0 /home/howard/app/ti/msp430-gcc/bin/../lib/gcc/msp430-elf/8.3.0/../../../../msp430-elf/lib/libc.a(lib_a-nano-freer.o)
 .text          0x0000000000000000        0x0 /home/howard/app/ti/msp430-gcc/bin/../lib/gcc/msp430-elf/8.3.0/../../../../msp430-elf/lib/libc.a(lib_a-nano-mallocr.o)
 .data          0x0000000000000000        0x0 /home/howard/app/ti/msp430-gcc/bin/../lib/gcc/msp430-elf/8.3.0/../../../../msp430-elf/lib/libc.a(lib_a-nano-mallocr.o)
 .bss           0x0000000000000000        0x0 /home/howard/app/ti/msp430-gcc/bin/../lib/gcc/msp430-elf/8.3.0/../../../../msp430-elf/lib/libc.a(lib_a-nano-mallocr.o)
 .text          0x0000000000000000        0x0 /home/howard/app/ti/msp430-gcc/bin/../lib/gcc/msp430-elf/8.3.0/../../../../msp430-elf/lib/libc.a(lib_a-printf.o)
 .data          0x0000000000000000        0x0 /home/howard/app/ti/msp430-gcc/bin/../lib/gcc/msp430-elf/8.3.0/../../../../msp430-elf/lib/libc.a(lib_a-printf.o)
 .bss           0x0000000000000000        0x0 /home/howard/app/ti/msp430-gcc/bin/../lib/gcc/msp430-elf/8.3.0/../../../../msp430-elf/lib/libc.a(lib_a-printf.o)
 .text._printf_r
                0x0000000000000000       0x2a /home/howard/app/ti/msp430-gcc/bin/../lib/gcc/msp430-elf/8.3.0/../../../../msp430-elf/lib/libc.a(lib_a-printf.o)
 .text          0x0000000000000000        0x0 /home/howard/app/ti/msp430-gcc/bin/../lib/gcc/msp430-elf/8.3.0/../../../../msp430-elf/lib/libc.a(lib_a-putchar.o)
 .data          0x0000000000000000        0x0 /home/howard/app/ti/msp430-gcc/bin/../lib/gcc/msp430-elf/8.3.0/../../../../msp430-elf/lib/libc.a(lib_a-putchar.o)
 .bss           0x0000000000000000        0x0 /home/howard/app/ti/msp430-gcc/bin/../lib/gcc/msp430-elf/8.3.0/../../../../msp430-elf/lib/libc.a(lib_a-putchar.o)
 .text._putchar_r
                0x0000000000000000       0x2a /home/howard/app/ti/msp430-gcc/bin/../lib/gcc/msp430-elf/8.3.0/../../../../msp430-elf/lib/libc.a(lib_a-putchar.o)
 .text          0x0000000000000000        0x0 /home/howard/app/ti/msp430-gcc/bin/../lib/gcc/msp430-elf/8.3.0/../../../../msp430-elf/lib/libc.a(lib_a-putc.o)
 .data          0x0000000000000000        0x0 /home/howard/app/ti/msp430-gcc/bin/../lib/gcc/msp430-elf/8.3.0/../../../../msp430-elf/lib/libc.a(lib_a-putc.o)
 .bss           0x0000000000000000        0x0 /home/howard/app/ti/msp430-gcc/bin/../lib/gcc/msp430-elf/8.3.0/../../../../msp430-elf/lib/libc.a(lib_a-putc.o)
 .text.putc     0x0000000000000000        0xe /home/howard/app/ti/msp430-gcc/bin/../lib/gcc/msp430-elf/8.3.0/../../../../msp430-elf/lib/libc.a(lib_a-putc.o)
 .text          0x0000000000000000        0x0 /home/howard/app/ti/msp430-gcc/bin/../lib/gcc/msp430-elf/8.3.0/../../../../msp430-elf/lib/libc.a(lib_a-puts.o)
 .data          0x0000000000000000        0x0 /home/howard/app/ti/msp430-gcc/bin/../lib/gcc/msp430-elf/8.3.0/../../../../msp430-elf/lib/libc.a(lib_a-puts.o)
 .bss           0x0000000000000000        0x0 /home/howard/app/ti/msp430-gcc/bin/../lib/gcc/msp430-elf/8.3.0/../../../../msp430-elf/lib/libc.a(lib_a-puts.o)
 .text          0x0000000000000000        0x0 /home/howard/app/ti/msp430-gcc/bin/../lib/gcc/msp430-elf/8.3.0/../../../../msp430-elf/lib/libc.a(lib_a-sbrkr.o)
 .data          0x0000000000000000        0x0 /home/howard/app/ti/msp430-gcc/bin/../lib/gcc/msp430-elf/8.3.0/../../../../msp430-elf/lib/libc.a(lib_a-sbrkr.o)
 .bss           0x0000000000000000        0x0 /home/howard/app/ti/msp430-gcc/bin/../lib/gcc/msp430-elf/8.3.0/../../../../msp430-elf/lib/libc.a(lib_a-sbrkr.o)
 .text          0x0000000000000000        0x0 /home/howard/app/ti/msp430-gcc/bin/../lib/gcc/msp430-elf/8.3.0/../../../../msp430-elf/lib/libc.a(lib_a-signal.o)
 .data          0x0000000000000000        0x0 /home/howard/app/ti/msp430-gcc/bin/../lib/gcc/msp430-elf/8.3.0/../../../../msp430-elf/lib/libc.a(lib_a-signal.o)
 .bss           0x0000000000000000        0x0 /home/howard/app/ti/msp430-gcc/bin/../lib/gcc/msp430-elf/8.3.0/../../../../msp430-elf/lib/libc.a(lib_a-signal.o)
 .text._init_signal_r
                0x0000000000000000       0x36 /home/howard/app/ti/msp430-gcc/bin/../lib/gcc/msp430-elf/8.3.0/../../../../msp430-elf/lib/libc.a(lib_a-signal.o)
 .text._signal_r
                0x0000000000000000       0x3e /home/howard/app/ti/msp430-gcc/bin/../lib/gcc/msp430-elf/8.3.0/../../../../msp430-elf/lib/libc.a(lib_a-signal.o)
 .text.__sigtramp_r
                0x0000000000000000       0x5e /home/howard/app/ti/msp430-gcc/bin/../lib/gcc/msp430-elf/8.3.0/../../../../msp430-elf/lib/libc.a(lib_a-signal.o)
 .text.signal   0x0000000000000000        0xe /home/howard/app/ti/msp430-gcc/bin/../lib/gcc/msp430-elf/8.3.0/../../../../msp430-elf/lib/libc.a(lib_a-signal.o)
 .text._init_signal
                0x0000000000000000        0xa /home/howard/app/ti/msp430-gcc/bin/../lib/gcc/msp430-elf/8.3.0/../../../../msp430-elf/lib/libc.a(lib_a-signal.o)
 .text.__sigtramp
                0x0000000000000000        0xc /home/howard/app/ti/msp430-gcc/bin/../lib/gcc/msp430-elf/8.3.0/../../../../msp430-elf/lib/libc.a(lib_a-signal.o)
 .text          0x0000000000000000        0x0 /home/howard/app/ti/msp430-gcc/bin/../lib/gcc/msp430-elf/8.3.0/../../../../msp430-elf/lib/libc.a(lib_a-signalr.o)
 .data          0x0000000000000000        0x0 /home/howard/app/ti/msp430-gcc/bin/../lib/gcc/msp430-elf/8.3.0/../../../../msp430-elf/lib/libc.a(lib_a-signalr.o)
 .bss           0x0000000000000000        0x0 /home/howard/app/ti/msp430-gcc/bin/../lib/gcc/msp430-elf/8.3.0/../../../../msp430-elf/lib/libc.a(lib_a-signalr.o)
 .text          0x0000000000000000        0x0 /home/howard/app/ti/msp430-gcc/bin/../lib/gcc/msp430-elf/8.3.0/../../../../msp430-elf/lib/libc.a(lib_a-sprintf.o)
 .data          0x0000000000000000        0x0 /home/howard/app/ti/msp430-gcc/bin/../lib/gcc/msp430-elf/8.3.0/../../../../msp430-elf/lib/libc.a(lib_a-sprintf.o)
 .bss           0x0000000000000000        0x0 /home/howard/app/ti/msp430-gcc/bin/../lib/gcc/msp430-elf/8.3.0/../../../../msp430-elf/lib/libc.a(lib_a-sprintf.o)
 .text._sprintf_r
                0x0000000000000000       0x3e /home/howard/app/ti/msp430-gcc/bin/../lib/gcc/msp430-elf/8.3.0/../../../../msp430-elf/lib/libc.a(lib_a-sprintf.o)
 .text          0x0000000000000000        0x0 /home/howard/app/ti/msp430-gcc/bin/../lib/gcc/msp430-elf/8.3.0/../../../../msp430-elf/lib/libc.a(lib_a-strchr.o)
 .data          0x0000000000000000        0x0 /home/howard/app/ti/msp430-gcc/bin/../lib/gcc/msp430-elf/8.3.0/../../../../msp430-elf/lib/libc.a(lib_a-strchr.o)
 .bss           0x0000000000000000        0x0 /home/howard/app/ti/msp430-gcc/bin/../lib/gcc/msp430-elf/8.3.0/../../../../msp430-elf/lib/libc.a(lib_a-strchr.o)
 .text          0x0000000000000000        0x0 /home/howard/app/ti/msp430-gcc/bin/../lib/gcc/msp430-elf/8.3.0/../../../../msp430-elf/lib/libc.a(lib_a-strlen.o)
 .data          0x0000000000000000        0x0 /home/howard/app/ti/msp430-gcc/bin/../lib/gcc/msp430-elf/8.3.0/../../../../msp430-elf/lib/libc.a(lib_a-strlen.o)
 .bss           0x0000000000000000        0x0 /home/howard/app/ti/msp430-gcc/bin/../lib/gcc/msp430-elf/8.3.0/../../../../msp430-elf/lib/libc.a(lib_a-strlen.o)
 .text          0x0000000000000000        0x0 /home/howard/app/ti/msp430-gcc/bin/../lib/gcc/msp430-elf/8.3.0/../../../../msp430-elf/lib/libc.a(lib_a-strstr.o)
 .data          0x0000000000000000        0x0 /home/howard/app/ti/msp430-gcc/bin/../lib/gcc/msp430-elf/8.3.0/../../../../msp430-elf/lib/libc.a(lib_a-strstr.o)
 .bss           0x0000000000000000        0x0 /home/howard/app/ti/msp430-gcc/bin/../lib/gcc/msp430-elf/8.3.0/../../../../msp430-elf/lib/libc.a(lib_a-strstr.o)
 .text          0x0000000000000000        0x0 /home/howard/app/ti/msp430-gcc/bin/../lib/gcc/msp430-elf/8.3.0/../../../../msp430-elf/lib/libc.a(lib_a-strtod.o)
 .data          0x0000000000000000        0x0 /home/howard/app/ti/msp430-gcc/bin/../lib/gcc/msp430-elf/8.3.0/../../../../msp430-elf/lib/libc.a(lib_a-strtod.o)
 .bss           0x0000000000000000        0x0 /home/howard/app/ti/msp430-gcc/bin/../lib/gcc/msp430-elf/8.3.0/../../../../msp430-elf/lib/libc.a(lib_a-strtod.o)
 .text.sulp     0x0000000000000000       0x7a /home/howard/app/ti/msp430-gcc/bin/../lib/gcc/msp430-elf/8.3.0/../../../../msp430-elf/lib/libc.a(lib_a-strtod.o)
 .rodata        0x0000000000000000        0xc /home/howard/app/ti/msp430-gcc/bin/../lib/gcc/msp430-elf/8.3.0/../../../../msp430-elf/lib/libc.a(lib_a-strtod.o)
 .text._strtod_r
                0x0000000000000000     0x152a /home/howard/app/ti/msp430-gcc/bin/../lib/gcc/msp430-elf/8.3.0/../../../../msp430-elf/lib/libc.a(lib_a-strtod.o)
 .text.strtod   0x0000000000000000        0xe /home/howard/app/ti/msp430-gcc/bin/../lib/gcc/msp430-elf/8.3.0/../../../../msp430-elf/lib/libc.a(lib_a-strtod.o)
 .text.strtof   0x0000000000000000       0x4c /home/howard/app/ti/msp430-gcc/bin/../lib/gcc/msp430-elf/8.3.0/../../../../msp430-elf/lib/libc.a(lib_a-strtod.o)
 .rodata.fpinan.2620
                0x0000000000000000        0xa /home/howard/app/ti/msp430-gcc/bin/../lib/gcc/msp430-elf/8.3.0/../../../../msp430-elf/lib/libc.a(lib_a-strtod.o)
 .rodata.fpi.2584
                0x0000000000000000        0xa /home/howard/app/ti/msp430-gcc/bin/../lib/gcc/msp430-elf/8.3.0/../../../../msp430-elf/lib/libc.a(lib_a-strtod.o)
 .rodata.tinytens
                0x0000000000000000       0x28 /home/howard/app/ti/msp430-gcc/bin/../lib/gcc/msp430-elf/8.3.0/../../../../msp430-elf/lib/libc.a(lib_a-strtod.o)
 .text          0x0000000000000000        0x0 /home/howard/app/ti/msp430-gcc/bin/../lib/gcc/msp430-elf/8.3.0/../../../../msp430-elf/lib/libc.a(lib_a-strtok.o)
 .data          0x0000000000000000        0x0 /home/howard/app/ti/msp430-gcc/bin/../lib/gcc/msp430-elf/8.3.0/../../../../msp430-elf/lib/libc.a(lib_a-strtok.o)
 .bss           0x0000000000000000        0x0 /home/howard/app/ti/msp430-gcc/bin/../lib/gcc/msp430-elf/8.3.0/../../../../msp430-elf/lib/libc.a(lib_a-strtok.o)
 .text          0x0000000000000000        0x0 /home/howard/app/ti/msp430-gcc/bin/../lib/gcc/msp430-elf/8.3.0/../../../../msp430-elf/lib/libc.a(lib_a-strtok_r.o)
 .data          0x0000000000000000        0x0 /home/howard/app/ti/msp430-gcc/bin/../lib/gcc/msp430-elf/8.3.0/../../../../msp430-elf/lib/libc.a(lib_a-strtok_r.o)
 .bss           0x0000000000000000        0x0 /home/howard/app/ti/msp430-gcc/bin/../lib/gcc/msp430-elf/8.3.0/../../../../msp430-elf/lib/libc.a(lib_a-strtok_r.o)
 .text.strtok_r
                0x0000000000000000        0x8 /home/howard/app/ti/msp430-gcc/bin/../lib/gcc/msp430-elf/8.3.0/../../../../msp430-elf/lib/libc.a(lib_a-strtok_r.o)
 .text          0x0000000000000000        0x0 /home/howard/app/ti/msp430-gcc/bin/../lib/gcc/msp430-elf/8.3.0/../../../../msp430-elf/lib/libc.a(lib_a-strtol.o)
 .data          0x0000000000000000        0x0 /home/howard/app/ti/msp430-gcc/bin/../lib/gcc/msp430-elf/8.3.0/../../../../msp430-elf/lib/libc.a(lib_a-strtol.o)
 .bss           0x0000000000000000        0x0 /home/howard/app/ti/msp430-gcc/bin/../lib/gcc/msp430-elf/8.3.0/../../../../msp430-elf/lib/libc.a(lib_a-strtol.o)
 .text          0x0000000000000000        0x0 /home/howard/app/ti/msp430-gcc/bin/../lib/gcc/msp430-elf/8.3.0/../../../../msp430-elf/lib/libc.a(lib_a-wbuf.o)
 .data          0x0000000000000000        0x0 /home/howard/app/ti/msp430-gcc/bin/../lib/gcc/msp430-elf/8.3.0/../../../../msp430-elf/lib/libc.a(lib_a-wbuf.o)
 .bss           0x0000000000000000        0x0 /home/howard/app/ti/msp430-gcc/bin/../lib/gcc/msp430-elf/8.3.0/../../../../msp430-elf/lib/libc.a(lib_a-wbuf.o)
 .text.__swbuf  0x0000000000000000        0xe /home/howard/app/ti/msp430-gcc/bin/../lib/gcc/msp430-elf/8.3.0/../../../../msp430-elf/lib/libc.a(lib_a-wbuf.o)
 .text          0x0000000000000000        0x0 /home/howard/app/ti/msp430-gcc/bin/../lib/gcc/msp430-elf/8.3.0/../../../../msp430-elf/lib/libc.a(lib_a-wsetup.o)
 .data          0x0000000000000000        0x0 /home/howard/app/ti/msp430-gcc/bin/../lib/gcc/msp430-elf/8.3.0/../../../../msp430-elf/lib/libc.a(lib_a-wsetup.o)
 .bss           0x0000000000000000        0x0 /home/howard/app/ti/msp430-gcc/bin/../lib/gcc/msp430-elf/8.3.0/../../../../msp430-elf/lib/libc.a(lib_a-wsetup.o)
 .text          0x0000000000000000        0x0 /home/howard/app/ti/msp430-gcc/bin/../lib/gcc/msp430-elf/8.3.0/../../../../msp430-elf/lib/libc.a(lib_a-ctype_.o)
 .data          0x0000000000000000        0x0 /home/howard/app/ti/msp430-gcc/bin/../lib/gcc/msp430-elf/8.3.0/../../../../msp430-elf/lib/libc.a(lib_a-ctype_.o)
 .bss           0x0000000000000000        0x0 /home/howard/app/ti/msp430-gcc/bin/../lib/gcc/msp430-elf/8.3.0/../../../../msp430-elf/lib/libc.a(lib_a-ctype_.o)
 .text          0x0000000000000000        0x0 /home/howard/app/ti/msp430-gcc/bin/../lib/gcc/msp430-elf/8.3.0/../../../../msp430-elf/lib/libc.a(lib_a-fflush.o)
 .data          0x0000000000000000        0x0 /home/howard/app/ti/msp430-gcc/bin/../lib/gcc/msp430-elf/8.3.0/../../../../msp430-elf/lib/libc.a(lib_a-fflush.o)
 .bss           0x0000000000000000        0x0 /home/howard/app/ti/msp430-gcc/bin/../lib/gcc/msp430-elf/8.3.0/../../../../msp430-elf/lib/libc.a(lib_a-fflush.o)
 .text.fflush   0x0000000000000000       0x20 /home/howard/app/ti/msp430-gcc/bin/../lib/gcc/msp430-elf/8.3.0/../../../../msp430-elf/lib/libc.a(lib_a-fflush.o)
 .text          0x0000000000000000        0x0 /home/howard/app/ti/msp430-gcc/bin/../lib/gcc/msp430-elf/8.3.0/../../../../msp430-elf/lib/libc.a(lib_a-findfp.o)
 .data          0x0000000000000000        0x0 /home/howard/app/ti/msp430-gcc/bin/../lib/gcc/msp430-elf/8.3.0/../../../../msp430-elf/lib/libc.a(lib_a-findfp.o)
 .bss           0x0000000000000000        0x0 /home/howard/app/ti/msp430-gcc/bin/../lib/gcc/msp430-elf/8.3.0/../../../../msp430-elf/lib/libc.a(lib_a-findfp.o)
 .text.__fp_lock
                0x0000000000000000        0x4 /home/howard/app/ti/msp430-gcc/bin/../lib/gcc/msp430-elf/8.3.0/../../../../msp430-elf/lib/libc.a(lib_a-findfp.o)
 .text.__fp_unlock
                0x0000000000000000        0x4 /home/howard/app/ti/msp430-gcc/bin/../lib/gcc/msp430-elf/8.3.0/../../../../msp430-elf/lib/libc.a(lib_a-findfp.o)
 .text._cleanup
                0x0000000000000000        0xa /home/howard/app/ti/msp430-gcc/bin/../lib/gcc/msp430-elf/8.3.0/../../../../msp430-elf/lib/libc.a(lib_a-findfp.o)
 .text.__sinit_lock_acquire
                0x0000000000000000        0x2 /home/howard/app/ti/msp430-gcc/bin/../lib/gcc/msp430-elf/8.3.0/../../../../msp430-elf/lib/libc.a(lib_a-findfp.o)
 .text.__sinit_lock_release
                0x0000000000000000        0x2 /home/howard/app/ti/msp430-gcc/bin/../lib/gcc/msp430-elf/8.3.0/../../../../msp430-elf/lib/libc.a(lib_a-findfp.o)
 .text.__fp_lock_all
                0x0000000000000000        0xe /home/howard/app/ti/msp430-gcc/bin/../lib/gcc/msp430-elf/8.3.0/../../../../msp430-elf/lib/libc.a(lib_a-findfp.o)
 .text.__fp_unlock_all
                0x0000000000000000        0xe /home/howard/app/ti/msp430-gcc/bin/../lib/gcc/msp430-elf/8.3.0/../../../../msp430-elf/lib/libc.a(lib_a-findfp.o)
 .text          0x0000000000000000        0x0 /home/howard/app/ti/msp430-gcc/bin/../lib/gcc/msp430-elf/8.3.0/../../../../msp430-elf/lib/libc.a(lib_a-fvwrite.o)
 .data          0x0000000000000000        0x0 /home/howard/app/ti/msp430-gcc/bin/../lib/gcc/msp430-elf/8.3.0/../../../../msp430-elf/lib/libc.a(lib_a-fvwrite.o)
 .bss           0x0000000000000000        0x0 /home/howard/app/ti/msp430-gcc/bin/../lib/gcc/msp430-elf/8.3.0/../../../../msp430-elf/lib/libc.a(lib_a-fvwrite.o)
 .text          0x0000000000000000        0x0 /home/howard/app/ti/msp430-gcc/bin/../lib/gcc/msp430-elf/8.3.0/../../../../msp430-elf/lib/libc.a(lib_a-fwalk.o)
 .data          0x0000000000000000        0x0 /home/howard/app/ti/msp430-gcc/bin/../lib/gcc/msp430-elf/8.3.0/../../../../msp430-elf/lib/libc.a(lib_a-fwalk.o)
 .bss           0x0000000000000000        0x0 /home/howard/app/ti/msp430-gcc/bin/../lib/gcc/msp430-elf/8.3.0/../../../../msp430-elf/lib/libc.a(lib_a-fwalk.o)
 .text._fwalk   0x0000000000000000       0x4c /home/howard/app/ti/msp430-gcc/bin/../lib/gcc/msp430-elf/8.3.0/../../../../msp430-elf/lib/libc.a(lib_a-fwalk.o)
 .text          0x0000000000000000        0x0 /home/howard/app/ti/msp430-gcc/bin/../lib/gcc/msp430-elf/8.3.0/../../../../msp430-elf/lib/libc.a(lib_a-gdtoa-gethex.o)
 .data          0x0000000000000000        0x0 /home/howard/app/ti/msp430-gcc/bin/../lib/gcc/msp430-elf/8.3.0/../../../../msp430-elf/lib/libc.a(lib_a-gdtoa-gethex.o)
 .bss           0x0000000000000000        0x0 /home/howard/app/ti/msp430-gcc/bin/../lib/gcc/msp430-elf/8.3.0/../../../../msp430-elf/lib/libc.a(lib_a-gdtoa-gethex.o)
 .text.rshift   0x0000000000000000       0xf4 /home/howard/app/ti/msp430-gcc/bin/../lib/gcc/msp430-elf/8.3.0/../../../../msp430-elf/lib/libc.a(lib_a-gdtoa-gethex.o)
 .text.__hexdig_fun
                0x0000000000000000       0x4e /home/howard/app/ti/msp430-gcc/bin/../lib/gcc/msp430-elf/8.3.0/../../../../msp430-elf/lib/libc.a(lib_a-gdtoa-gethex.o)
 .text.__gethex
                0x0000000000000000      0x718 /home/howard/app/ti/msp430-gcc/bin/../lib/gcc/msp430-elf/8.3.0/../../../../msp430-elf/lib/libc.a(lib_a-gdtoa-gethex.o)
 .text          0x0000000000000000        0x0 /home/howard/app/ti/msp430-gcc/bin/../lib/gcc/msp430-elf/8.3.0/../../../../msp430-elf/lib/libc.a(lib_a-gdtoa-hexnan.o)
 .data          0x0000000000000000        0x0 /home/howard/app/ti/msp430-gcc/bin/../lib/gcc/msp430-elf/8.3.0/../../../../msp430-elf/lib/libc.a(lib_a-gdtoa-hexnan.o)
 .bss           0x0000000000000000        0x0 /home/howard/app/ti/msp430-gcc/bin/../lib/gcc/msp430-elf/8.3.0/../../../../msp430-elf/lib/libc.a(lib_a-gdtoa-hexnan.o)
 .text.L_shift  0x0000000000000000       0x62 /home/howard/app/ti/msp430-gcc/bin/../lib/gcc/msp430-elf/8.3.0/../../../../msp430-elf/lib/libc.a(lib_a-gdtoa-hexnan.o)
 .text.__match  0x0000000000000000       0x36 /home/howard/app/ti/msp430-gcc/bin/../lib/gcc/msp430-elf/8.3.0/../../../../msp430-elf/lib/libc.a(lib_a-gdtoa-hexnan.o)
 .text.__hexnan
                0x0000000000000000      0x1ba /home/howard/app/ti/msp430-gcc/bin/../lib/gcc/msp430-elf/8.3.0/../../../../msp430-elf/lib/libc.a(lib_a-gdtoa-hexnan.o)
 .text          0x0000000000000000        0x0 /home/howard/app/ti/msp430-gcc/bin/../lib/gcc/msp430-elf/8.3.0/../../../../msp430-elf/lib/libc.a(lib_a-impure.o)
 .data          0x0000000000000000        0x0 /home/howard/app/ti/msp430-gcc/bin/../lib/gcc/msp430-elf/8.3.0/../../../../msp430-elf/lib/libc.a(lib_a-impure.o)
 .bss           0x0000000000000000        0x0 /home/howard/app/ti/msp430-gcc/bin/../lib/gcc/msp430-elf/8.3.0/../../../../msp430-elf/lib/libc.a(lib_a-impure.o)
 .text          0x0000000000000000        0x0 /home/howard/app/ti/msp430-gcc/bin/../lib/gcc/msp430-elf/8.3.0/../../../../msp430-elf/lib/libc.a(lib_a-locale.o)
 .data          0x0000000000000000        0x0 /home/howard/app/ti/msp430-gcc/bin/../lib/gcc/msp430-elf/8.3.0/../../../../msp430-elf/lib/libc.a(lib_a-locale.o)
 .bss           0x0000000000000000        0x0 /home/howard/app/ti/msp430-gcc/bin/../lib/gcc/msp430-elf/8.3.0/../../../../msp430-elf/lib/libc.a(lib_a-locale.o)
 .rodata        0x0000000000000000        0xb /home/howard/app/ti/msp430-gcc/bin/../lib/gcc/msp430-elf/8.3.0/../../../../msp430-elf/lib/libc.a(lib_a-locale.o)
 .text._setlocale_r
                0x0000000000000000       0x3e /home/howard/app/ti/msp430-gcc/bin/../lib/gcc/msp430-elf/8.3.0/../../../../msp430-elf/lib/libc.a(lib_a-locale.o)
 .text.__locale_msgcharset
                0x0000000000000000        0x6 /home/howard/app/ti/msp430-gcc/bin/../lib/gcc/msp430-elf/8.3.0/../../../../msp430-elf/lib/libc.a(lib_a-locale.o)
 .text.__locale_cjk_lang
                0x0000000000000000        0x4 /home/howard/app/ti/msp430-gcc/bin/../lib/gcc/msp430-elf/8.3.0/../../../../msp430-elf/lib/libc.a(lib_a-locale.o)
 .text._localeconv_r
                0x0000000000000000        0x6 /home/howard/app/ti/msp430-gcc/bin/../lib/gcc/msp430-elf/8.3.0/../../../../msp430-elf/lib/libc.a(lib_a-locale.o)
 .text.setlocale
                0x0000000000000000        0xe /home/howard/app/ti/msp430-gcc/bin/../lib/gcc/msp430-elf/8.3.0/../../../../msp430-elf/lib/libc.a(lib_a-locale.o)
 .text.localeconv
                0x0000000000000000        0x6 /home/howard/app/ti/msp430-gcc/bin/../lib/gcc/msp430-elf/8.3.0/../../../../msp430-elf/lib/libc.a(lib_a-locale.o)
 .data.lc_message_charset
                0x0000000000000000       0x20 /home/howard/app/ti/msp430-gcc/bin/../lib/gcc/msp430-elf/8.3.0/../../../../msp430-elf/lib/libc.a(lib_a-locale.o)
 .data.lconv    0x0000000000000000       0x22 /home/howard/app/ti/msp430-gcc/bin/../lib/gcc/msp430-elf/8.3.0/../../../../msp430-elf/lib/libc.a(lib_a-locale.o)
 .bss._PathLocale
                0x0000000000000000        0x2 /home/howard/app/ti/msp430-gcc/bin/../lib/gcc/msp430-elf/8.3.0/../../../../msp430-elf/lib/libc.a(lib_a-locale.o)
 .bss.__mlocale_changed
                0x0000000000000000        0x2 /home/howard/app/ti/msp430-gcc/bin/../lib/gcc/msp430-elf/8.3.0/../../../../msp430-elf/lib/libc.a(lib_a-locale.o)
 .bss.__nlocale_changed
                0x0000000000000000        0x2 /home/howard/app/ti/msp430-gcc/bin/../lib/gcc/msp430-elf/8.3.0/../../../../msp430-elf/lib/libc.a(lib_a-locale.o)
 .text          0x0000000000000000        0x0 /home/howard/app/ti/msp430-gcc/bin/../lib/gcc/msp430-elf/8.3.0/../../../../msp430-elf/lib/libc.a(lib_a-makebuf.o)
 .data          0x0000000000000000        0x0 /home/howard/app/ti/msp430-gcc/bin/../lib/gcc/msp430-elf/8.3.0/../../../../msp430-elf/lib/libc.a(lib_a-makebuf.o)
 .bss           0x0000000000000000        0x0 /home/howard/app/ti/msp430-gcc/bin/../lib/gcc/msp430-elf/8.3.0/../../../../msp430-elf/lib/libc.a(lib_a-makebuf.o)
 .text          0x0000000000000000        0x0 /home/howard/app/ti/msp430-gcc/bin/../lib/gcc/msp430-elf/8.3.0/../../../../msp430-elf/lib/libc.a(lib_a-memchr.o)
 .data          0x0000000000000000        0x0 /home/howard/app/ti/msp430-gcc/bin/../lib/gcc/msp430-elf/8.3.0/../../../../msp430-elf/lib/libc.a(lib_a-memchr.o)
 .bss           0x0000000000000000        0x0 /home/howard/app/ti/msp430-gcc/bin/../lib/gcc/msp430-elf/8.3.0/../../../../msp430-elf/lib/libc.a(lib_a-memchr.o)
 .text          0x0000000000000000        0x0 /home/howard/app/ti/msp430-gcc/bin/../lib/gcc/msp430-elf/8.3.0/../../../../msp430-elf/lib/libc.a(lib_a-memmove.o)
 .data          0x0000000000000000        0x0 /home/howard/app/ti/msp430-gcc/bin/../lib/gcc/msp430-elf/8.3.0/../../../../msp430-elf/lib/libc.a(lib_a-memmove.o)
 .bss           0x0000000000000000        0x0 /home/howard/app/ti/msp430-gcc/bin/../lib/gcc/msp430-elf/8.3.0/../../../../msp430-elf/lib/libc.a(lib_a-memmove.o)
 .text          0x0000000000000000        0x0 /home/howard/app/ti/msp430-gcc/bin/../lib/gcc/msp430-elf/8.3.0/../../../../msp430-elf/lib/libc.a(lib_a-mprec.o)
 .data          0x0000000000000000        0x0 /home/howard/app/ti/msp430-gcc/bin/../lib/gcc/msp430-elf/8.3.0/../../../../msp430-elf/lib/libc.a(lib_a-mprec.o)
 .bss           0x0000000000000000        0x0 /home/howard/app/ti/msp430-gcc/bin/../lib/gcc/msp430-elf/8.3.0/../../../../msp430-elf/lib/libc.a(lib_a-mprec.o)
 .text._Balloc  0x0000000000000000       0x9e /home/howard/app/ti/msp430-gcc/bin/../lib/gcc/msp430-elf/8.3.0/../../../../msp430-elf/lib/libc.a(lib_a-mprec.o)
 .text._Bfree   0x0000000000000000       0x44 /home/howard/app/ti/msp430-gcc/bin/../lib/gcc/msp430-elf/8.3.0/../../../../msp430-elf/lib/libc.a(lib_a-mprec.o)
 .text.__multadd
                0x0000000000000000      0x11e /home/howard/app/ti/msp430-gcc/bin/../lib/gcc/msp430-elf/8.3.0/../../../../msp430-elf/lib/libc.a(lib_a-mprec.o)
 .text.__s2b    0x0000000000000000       0xc6 /home/howard/app/ti/msp430-gcc/bin/../lib/gcc/msp430-elf/8.3.0/../../../../msp430-elf/lib/libc.a(lib_a-mprec.o)
 .text.__hi0bits
                0x0000000000000000       0x72 /home/howard/app/ti/msp430-gcc/bin/../lib/gcc/msp430-elf/8.3.0/../../../../msp430-elf/lib/libc.a(lib_a-mprec.o)
 .text.__lo0bits
                0x0000000000000000       0xcc /home/howard/app/ti/msp430-gcc/bin/../lib/gcc/msp430-elf/8.3.0/../../../../msp430-elf/lib/libc.a(lib_a-mprec.o)
 .text.__i2b    0x0000000000000000       0x22 /home/howard/app/ti/msp430-gcc/bin/../lib/gcc/msp430-elf/8.3.0/../../../../msp430-elf/lib/libc.a(lib_a-mprec.o)
 .text.__multiply
                0x0000000000000000      0x274 /home/howard/app/ti/msp430-gcc/bin/../lib/gcc/msp430-elf/8.3.0/../../../../msp430-elf/lib/libc.a(lib_a-mprec.o)
 .text.__pow5mult
                0x0000000000000000       0xae /home/howard/app/ti/msp430-gcc/bin/../lib/gcc/msp430-elf/8.3.0/../../../../msp430-elf/lib/libc.a(lib_a-mprec.o)
 .text.__lshift
                0x0000000000000000      0x134 /home/howard/app/ti/msp430-gcc/bin/../lib/gcc/msp430-elf/8.3.0/../../../../msp430-elf/lib/libc.a(lib_a-mprec.o)
 .text.__mcmp   0x0000000000000000       0x60 /home/howard/app/ti/msp430-gcc/bin/../lib/gcc/msp430-elf/8.3.0/../../../../msp430-elf/lib/libc.a(lib_a-mprec.o)
 .text.__mdiff  0x0000000000000000      0x1d6 /home/howard/app/ti/msp430-gcc/bin/../lib/gcc/msp430-elf/8.3.0/../../../../msp430-elf/lib/libc.a(lib_a-mprec.o)
 .text.__ulp    0x0000000000000000       0xa2 /home/howard/app/ti/msp430-gcc/bin/../lib/gcc/msp430-elf/8.3.0/../../../../msp430-elf/lib/libc.a(lib_a-mprec.o)
 .text.__b2d    0x0000000000000000      0x178 /home/howard/app/ti/msp430-gcc/bin/../lib/gcc/msp430-elf/8.3.0/../../../../msp430-elf/lib/libc.a(lib_a-mprec.o)
 .text.__d2b    0x0000000000000000      0x15c /home/howard/app/ti/msp430-gcc/bin/../lib/gcc/msp430-elf/8.3.0/../../../../msp430-elf/lib/libc.a(lib_a-mprec.o)
 .text.__ratio  0x0000000000000000       0xd2 /home/howard/app/ti/msp430-gcc/bin/../lib/gcc/msp430-elf/8.3.0/../../../../msp430-elf/lib/libc.a(lib_a-mprec.o)
 .text._mprec_log10
                0x0000000000000000       0x5e /home/howard/app/ti/msp430-gcc/bin/../lib/gcc/msp430-elf/8.3.0/../../../../msp430-elf/lib/libc.a(lib_a-mprec.o)
 .text.__copybits
                0x0000000000000000       0x4a /home/howard/app/ti/msp430-gcc/bin/../lib/gcc/msp430-elf/8.3.0/../../../../msp430-elf/lib/libc.a(lib_a-mprec.o)
 .text.__any_on
                0x0000000000000000       0x78 /home/howard/app/ti/msp430-gcc/bin/../lib/gcc/msp430-elf/8.3.0/../../../../msp430-elf/lib/libc.a(lib_a-mprec.o)
 .rodata.p05.2627
                0x0000000000000000        0x6 /home/howard/app/ti/msp430-gcc/bin/../lib/gcc/msp430-elf/8.3.0/../../../../msp430-elf/lib/libc.a(lib_a-mprec.o)
 .rodata.__mprec_tinytens
                0x0000000000000000       0x28 /home/howard/app/ti/msp430-gcc/bin/../lib/gcc/msp430-elf/8.3.0/../../../../msp430-elf/lib/libc.a(lib_a-mprec.o)
 .rodata.__mprec_bigtens
                0x0000000000000000       0x28 /home/howard/app/ti/msp430-gcc/bin/../lib/gcc/msp430-elf/8.3.0/../../../../msp430-elf/lib/libc.a(lib_a-mprec.o)
 .rodata.__mprec_tens
                0x0000000000000000       0xc8 /home/howard/app/ti/msp430-gcc/bin/../lib/gcc/msp430-elf/8.3.0/../../../../msp430-elf/lib/libc.a(lib_a-mprec.o)
 .text          0x0000000000000000        0x0 /home/howard/app/ti/msp430-gcc/bin/../lib/gcc/msp430-elf/8.3.0/../../../../msp430-elf/lib/libc.a(lib_a-nano-callocr.o)
 .data          0x0000000000000000        0x0 /home/howard/app/ti/msp430-gcc/bin/../lib/gcc/msp430-elf/8.3.0/../../../../msp430-elf/lib/libc.a(lib_a-nano-callocr.o)
 .bss           0x0000000000000000        0x0 /home/howard/app/ti/msp430-gcc/bin/../lib/gcc/msp430-elf/8.3.0/../../../../msp430-elf/lib/libc.a(lib_a-nano-callocr.o)
 .text._calloc_r
                0x0000000000000000       0x2a /home/howard/app/ti/msp430-gcc/bin/../lib/gcc/msp430-elf/8.3.0/../../../../msp430-elf/lib/libc.a(lib_a-nano-callocr.o)
 .text          0x0000000000000000        0x0 /home/howard/app/ti/msp430-gcc/bin/../lib/gcc/msp430-elf/8.3.0/../../../../msp430-elf/lib/libc.a(lib_a-nano-reallocr.o)
 .data          0x0000000000000000        0x0 /home/howard/app/ti/msp430-gcc/bin/../lib/gcc/msp430-elf/8.3.0/../../../../msp430-elf/lib/libc.a(lib_a-nano-reallocr.o)
 .bss           0x0000000000000000        0x0 /home/howard/app/ti/msp430-gcc/bin/../lib/gcc/msp430-elf/8.3.0/../../../../msp430-elf/lib/libc.a(lib_a-nano-reallocr.o)
 .text          0x0000000000000000        0x0 /home/howard/app/ti/msp430-gcc/bin/../lib/gcc/msp430-elf/8.3.0/../../../../msp430-elf/lib/libc.a(lib_a-nano-svfprintf.o)
 .data          0x0000000000000000        0x0 /home/howard/app/ti/msp430-gcc/bin/../lib/gcc/msp430-elf/8.3.0/../../../../msp430-elf/lib/libc.a(lib_a-nano-svfprintf.o)
 .bss           0x0000000000000000        0x0 /home/howard/app/ti/msp430-gcc/bin/../lib/gcc/msp430-elf/8.3.0/../../../../msp430-elf/lib/libc.a(lib_a-nano-svfprintf.o)
 .text.__ssprint_r
                0x0000000000000000      0x120 /home/howard/app/ti/msp430-gcc/bin/../lib/gcc/msp430-elf/8.3.0/../../../../msp430-elf/lib/libc.a(lib_a-nano-svfprintf.o)
 .text          0x0000000000000000        0x0 /home/howard/app/ti/msp430-gcc/bin/../lib/gcc/msp430-elf/8.3.0/../../../../msp430-elf/lib/libc.a(lib_a-nano-vfprintf_i.o)
 .data          0x0000000000000000        0x0 /home/howard/app/ti/msp430-gcc/bin/../lib/gcc/msp430-elf/8.3.0/../../../../msp430-elf/lib/libc.a(lib_a-nano-vfprintf_i.o)
 .bss           0x0000000000000000        0x0 /home/howard/app/ti/msp430-gcc/bin/../lib/gcc/msp430-elf/8.3.0/../../../../msp430-elf/lib/libc.a(lib_a-nano-vfprintf_i.o)
 .text          0x0000000000000000        0x0 /home/howard/app/ti/msp430-gcc/bin/../lib/gcc/msp430-elf/8.3.0/../../../../msp430-elf/lib/libc.a(lib_a-nano-vfprintf.o)
 .data          0x0000000000000000        0x0 /home/howard/app/ti/msp430-gcc/bin/../lib/gcc/msp430-elf/8.3.0/../../../../msp430-elf/lib/libc.a(lib_a-nano-vfprintf.o)
 .bss           0x0000000000000000        0x0 /home/howard/app/ti/msp430-gcc/bin/../lib/gcc/msp430-elf/8.3.0/../../../../msp430-elf/lib/libc.a(lib_a-nano-vfprintf.o)
 .text.__sprint_r
                0x0000000000000000       0x7a /home/howard/app/ti/msp430-gcc/bin/../lib/gcc/msp430-elf/8.3.0/../../../../msp430-elf/lib/libc.a(lib_a-nano-vfprintf.o)
 .text.vfprintf
                0x0000000000000000       0x10 /home/howard/app/ti/msp430-gcc/bin/../lib/gcc/msp430-elf/8.3.0/../../../../msp430-elf/lib/libc.a(lib_a-nano-vfprintf.o)
 .text          0x0000000000000000        0x0 /home/howard/app/ti/msp430-gcc/bin/../lib/gcc/msp430-elf/8.3.0/../../../../msp430-elf/lib/libc.a(lib_a-reent.o)
 .data          0x0000000000000000        0x0 /home/howard/app/ti/msp430-gcc/bin/../lib/gcc/msp430-elf/8.3.0/../../../../msp430-elf/lib/libc.a(lib_a-reent.o)
 .bss           0x0000000000000000        0x0 /home/howard/app/ti/msp430-gcc/bin/../lib/gcc/msp430-elf/8.3.0/../../../../msp430-elf/lib/libc.a(lib_a-reent.o)
 .text.cleanup_glue
                0x0000000000000000       0x1c /home/howard/app/ti/msp430-gcc/bin/../lib/gcc/msp430-elf/8.3.0/../../../../msp430-elf/lib/libc.a(lib_a-reent.o)
 .text._reclaim_reent
                0x0000000000000000      0x106 /home/howard/app/ti/msp430-gcc/bin/../lib/gcc/msp430-elf/8.3.0/../../../../msp430-elf/lib/libc.a(lib_a-reent.o)
 .text          0x0000000000000000        0x0 /home/howard/app/ti/msp430-gcc/bin/../lib/gcc/msp430-elf/8.3.0/../../../../msp430-elf/lib/libc.a(lib_a-sf_nan.o)
 .data          0x0000000000000000        0x0 /home/howard/app/ti/msp430-gcc/bin/../lib/gcc/msp430-elf/8.3.0/../../../../msp430-elf/lib/libc.a(lib_a-sf_nan.o)
 .bss           0x0000000000000000        0x0 /home/howard/app/ti/msp430-gcc/bin/../lib/gcc/msp430-elf/8.3.0/../../../../msp430-elf/lib/libc.a(lib_a-sf_nan.o)
 .text.nanf     0x0000000000000000        0x8 /home/howard/app/ti/msp430-gcc/bin/../lib/gcc/msp430-elf/8.3.0/../../../../msp430-elf/lib/libc.a(lib_a-sf_nan.o)
 .text          0x0000000000000000        0x0 /home/howard/app/ti/msp430-gcc/bin/../lib/gcc/msp430-elf/8.3.0/../../../../msp430-elf/lib/libc.a(lib_a-stdio.o)
 .data          0x0000000000000000        0x0 /home/howard/app/ti/msp430-gcc/bin/../lib/gcc/msp430-elf/8.3.0/../../../../msp430-elf/lib/libc.a(lib_a-stdio.o)
 .bss           0x0000000000000000        0x0 /home/howard/app/ti/msp430-gcc/bin/../lib/gcc/msp430-elf/8.3.0/../../../../msp430-elf/lib/libc.a(lib_a-stdio.o)
 .text.__seofread
                0x0000000000000000        0x4 /home/howard/app/ti/msp430-gcc/bin/../lib/gcc/msp430-elf/8.3.0/../../../../msp430-elf/lib/libc.a(lib_a-stdio.o)
 .text          0x0000000000000000        0x0 /home/howard/app/ti/msp430-gcc/bin/../lib/gcc/msp430-elf/8.3.0/../../../../msp430-elf/lib/libc.a(lib_a-strcmp.o)
 .data          0x0000000000000000        0x0 /home/howard/app/ti/msp430-gcc/bin/../lib/gcc/msp430-elf/8.3.0/../../../../msp430-elf/lib/libc.a(lib_a-strcmp.o)
 .bss           0x0000000000000000        0x0 /home/howard/app/ti/msp430-gcc/bin/../lib/gcc/msp430-elf/8.3.0/../../../../msp430-elf/lib/libc.a(lib_a-strcmp.o)
 .text.strcmp   0x0000000000000000       0x1a /home/howard/app/ti/msp430-gcc/bin/../lib/gcc/msp430-elf/8.3.0/../../../../msp430-elf/lib/libc.a(lib_a-strcmp.o)
 .text          0x0000000000000000        0x0 /home/howard/app/ti/msp430-gcc/bin/../lib/gcc/msp430-elf/8.3.0/../../../../msp430-elf/lib/libc.a(lib_a-strncmp.o)
 .data          0x0000000000000000        0x0 /home/howard/app/ti/msp430-gcc/bin/../lib/gcc/msp430-elf/8.3.0/../../../../msp430-elf/lib/libc.a(lib_a-strncmp.o)
 .bss           0x0000000000000000        0x0 /home/howard/app/ti/msp430-gcc/bin/../lib/gcc/msp430-elf/8.3.0/../../../../msp430-elf/lib/libc.a(lib_a-strncmp.o)
 .text.strncmp  0x0000000000000000       0x32 /home/howard/app/ti/msp430-gcc/bin/../lib/gcc/msp430-elf/8.3.0/../../../../msp430-elf/lib/libc.a(lib_a-strncmp.o)
 .text          0x0000000000000000        0x0 /home/howard/app/ti/msp430-gcc/bin/../lib/gcc/msp430-elf/8.3.0/../../../../msp430-elf/lib/libc.a(lib_a-writer.o)
 .data          0x0000000000000000        0x0 /home/howard/app/ti/msp430-gcc/bin/../lib/gcc/msp430-elf/8.3.0/../../../../msp430-elf/lib/libc.a(lib_a-writer.o)
 .bss           0x0000000000000000        0x0 /home/howard/app/ti/msp430-gcc/bin/../lib/gcc/msp430-elf/8.3.0/../../../../msp430-elf/lib/libc.a(lib_a-writer.o)
 .text          0x0000000000000000        0x0 /home/howard/app/ti/msp430-gcc/bin/../lib/gcc/msp430-elf/8.3.0/../../../../msp430-elf/lib/libc.a(lib_a-closer.o)
 .data          0x0000000000000000        0x0 /home/howard/app/ti/msp430-gcc/bin/../lib/gcc/msp430-elf/8.3.0/../../../../msp430-elf/lib/libc.a(lib_a-closer.o)
 .bss           0x0000000000000000        0x0 /home/howard/app/ti/msp430-gcc/bin/../lib/gcc/msp430-elf/8.3.0/../../../../msp430-elf/lib/libc.a(lib_a-closer.o)
 .text          0x0000000000000000        0x0 /home/howard/app/ti/msp430-gcc/bin/../lib/gcc/msp430-elf/8.3.0/../../../../msp430-elf/lib/libc.a(lib_a-fclose.o)
 .data          0x0000000000000000        0x0 /home/howard/app/ti/msp430-gcc/bin/../lib/gcc/msp430-elf/8.3.0/../../../../msp430-elf/lib/libc.a(lib_a-fclose.o)
 .bss           0x0000000000000000        0x0 /home/howard/app/ti/msp430-gcc/bin/../lib/gcc/msp430-elf/8.3.0/../../../../msp430-elf/lib/libc.a(lib_a-fclose.o)
 .text.fclose   0x0000000000000000        0xc /home/howard/app/ti/msp430-gcc/bin/../lib/gcc/msp430-elf/8.3.0/../../../../msp430-elf/lib/libc.a(lib_a-fclose.o)
 .text          0x0000000000000000        0x0 /home/howard/app/ti/msp430-gcc/bin/../lib/gcc/msp430-elf/8.3.0/../../../../msp430-elf/lib/libc.a(lib_a-fputwc.o)
 .data          0x0000000000000000        0x0 /home/howard/app/ti/msp430-gcc/bin/../lib/gcc/msp430-elf/8.3.0/../../../../msp430-elf/lib/libc.a(lib_a-fputwc.o)
 .bss           0x0000000000000000        0x0 /home/howard/app/ti/msp430-gcc/bin/../lib/gcc/msp430-elf/8.3.0/../../../../msp430-elf/lib/libc.a(lib_a-fputwc.o)
 .text.fputwc   0x0000000000000000       0x56 /home/howard/app/ti/msp430-gcc/bin/../lib/gcc/msp430-elf/8.3.0/../../../../msp430-elf/lib/libc.a(lib_a-fputwc.o)
 .text          0x0000000000000000        0x0 /home/howard/app/ti/msp430-gcc/bin/../lib/gcc/msp430-elf/8.3.0/../../../../msp430-elf/lib/libc.a(lib_a-fstatr.o)
 .data          0x0000000000000000        0x0 /home/howard/app/ti/msp430-gcc/bin/../lib/gcc/msp430-elf/8.3.0/../../../../msp430-elf/lib/libc.a(lib_a-fstatr.o)
 .bss           0x0000000000000000        0x0 /home/howard/app/ti/msp430-gcc/bin/../lib/gcc/msp430-elf/8.3.0/../../../../msp430-elf/lib/libc.a(lib_a-fstatr.o)
 .text          0x0000000000000000        0x0 /home/howard/app/ti/msp430-gcc/bin/../lib/gcc/msp430-elf/8.3.0/../../../../msp430-elf/lib/libc.a(lib_a-isattyr.o)
 .data          0x0000000000000000        0x0 /home/howard/app/ti/msp430-gcc/bin/../lib/gcc/msp430-elf/8.3.0/../../../../msp430-elf/lib/libc.a(lib_a-isattyr.o)
 .bss           0x0000000000000000        0x0 /home/howard/app/ti/msp430-gcc/bin/../lib/gcc/msp430-elf/8.3.0/../../../../msp430-elf/lib/libc.a(lib_a-isattyr.o)
 .text          0x0000000000000000        0x0 /home/howard/app/ti/msp430-gcc/bin/../lib/gcc/msp430-elf/8.3.0/../../../../msp430-elf/lib/libc.a(lib_a-lseekr.o)
 .data          0x0000000000000000        0x0 /home/howard/app/ti/msp430-gcc/bin/../lib/gcc/msp430-elf/8.3.0/../../../../msp430-elf/lib/libc.a(lib_a-lseekr.o)
 .bss           0x0000000000000000        0x0 /home/howard/app/ti/msp430-gcc/bin/../lib/gcc/msp430-elf/8.3.0/../../../../msp430-elf/lib/libc.a(lib_a-lseekr.o)
 .text          0x0000000000000000        0x0 /home/howard/app/ti/msp430-gcc/bin/../lib/gcc/msp430-elf/8.3.0/../../../../msp430-elf/lib/libc.a(lib_a-nano-msizer.o)
 .data          0x0000000000000000        0x0 /home/howard/app/ti/msp430-gcc/bin/../lib/gcc/msp430-elf/8.3.0/../../../../msp430-elf/lib/libc.a(lib_a-nano-msizer.o)
 .bss           0x0000000000000000        0x0 /home/howard/app/ti/msp430-gcc/bin/../lib/gcc/msp430-elf/8.3.0/../../../../msp430-elf/lib/libc.a(lib_a-nano-msizer.o)
 .text          0x0000000000000000        0x0 /home/howard/app/ti/msp430-gcc/bin/../lib/gcc/msp430-elf/8.3.0/../../../../msp430-elf/lib/libc.a(lib_a-readr.o)
 .data          0x0000000000000000        0x0 /home/howard/app/ti/msp430-gcc/bin/../lib/gcc/msp430-elf/8.3.0/../../../../msp430-elf/lib/libc.a(lib_a-readr.o)
 .bss           0x0000000000000000        0x0 /home/howard/app/ti/msp430-gcc/bin/../lib/gcc/msp430-elf/8.3.0/../../../../msp430-elf/lib/libc.a(lib_a-readr.o)
 .text          0x0000000000000000        0x0 /home/howard/app/ti/msp430-gcc/bin/../lib/gcc/msp430-elf/8.3.0/../../../../msp430-elf/lib/libc.a(lib_a-wcrtomb.o)
 .data          0x0000000000000000        0x0 /home/howard/app/ti/msp430-gcc/bin/../lib/gcc/msp430-elf/8.3.0/../../../../msp430-elf/lib/libc.a(lib_a-wcrtomb.o)
 .bss           0x0000000000000000        0x0 /home/howard/app/ti/msp430-gcc/bin/../lib/gcc/msp430-elf/8.3.0/../../../../msp430-elf/lib/libc.a(lib_a-wcrtomb.o)
 .text.wcrtomb  0x0000000000000000       0x18 /home/howard/app/ti/msp430-gcc/bin/../lib/gcc/msp430-elf/8.3.0/../../../../msp430-elf/lib/libc.a(lib_a-wcrtomb.o)
 .text          0x0000000000000000        0x0 /home/howard/app/ti/msp430-gcc/bin/../lib/gcc/msp430-elf/8.3.0/../../../../msp430-elf/lib/libc.a(lib_a-wctomb_r.o)
 .data          0x0000000000000000        0x0 /home/howard/app/ti/msp430-gcc/bin/../lib/gcc/msp430-elf/8.3.0/../../../../msp430-elf/lib/libc.a(lib_a-wctomb_r.o)
 .bss           0x0000000000000000        0x0 /home/howard/app/ti/msp430-gcc/bin/../lib/gcc/msp430-elf/8.3.0/../../../../msp430-elf/lib/libc.a(lib_a-wctomb_r.o)
 .text._wctomb_r
                0x0000000000000000       0x3e /home/howard/app/ti/msp430-gcc/bin/../lib/gcc/msp430-elf/8.3.0/../../../../msp430-elf/lib/libc.a(lib_a-wctomb_r.o)
 .text          0x0000000000000000        0x0 /home/howard/app/ti/msp430-gcc/bin/../lib/gcc/msp430-elf/8.3.0/libgcc.a(_muldi3.o)
 .data          0x0000000000000000        0x0 /home/howard/app/ti/msp430-gcc/bin/../lib/gcc/msp430-elf/8.3.0/libgcc.a(_muldi3.o)
 .bss           0x0000000000000000        0x0 /home/howard/app/ti/msp430-gcc/bin/../lib/gcc/msp430-elf/8.3.0/libgcc.a(_muldi3.o)
 .text.__muldi3
                0x0000000000000000      0x13c /home/howard/app/ti/msp430-gcc/bin/../lib/gcc/msp430-elf/8.3.0/libgcc.a(_muldi3.o)
 .text          0x0000000000000000        0x0 /home/howard/app/ti/msp430-gcc/bin/../lib/gcc/msp430-elf/8.3.0/libgcc.a(_fixunsdfsi.o)
 .data          0x0000000000000000        0x0 /home/howard/app/ti/msp430-gcc/bin/../lib/gcc/msp430-elf/8.3.0/libgcc.a(_fixunsdfsi.o)
 .bss           0x0000000000000000        0x0 /home/howard/app/ti/msp430-gcc/bin/../lib/gcc/msp430-elf/8.3.0/libgcc.a(_fixunsdfsi.o)
 .text.__fixunsdfsi
                0x0000000000000000       0x58 /home/howard/app/ti/msp430-gcc/bin/../lib/gcc/msp430-elf/8.3.0/libgcc.a(_fixunsdfsi.o)
 .text          0x0000000000000000        0x0 /home/howard/app/ti/msp430-gcc/bin/../lib/gcc/msp430-elf/8.3.0/libgcc.a(_eq_df.o)
 .data          0x0000000000000000        0x0 /home/howard/app/ti/msp430-gcc/bin/../lib/gcc/msp430-elf/8.3.0/libgcc.a(_eq_df.o)
 .bss           0x0000000000000000        0x0 /home/howard/app/ti/msp430-gcc/bin/../lib/gcc/msp430-elf/8.3.0/libgcc.a(_eq_df.o)
 .text.__eqdf2  0x0000000000000000       0x74 /home/howard/app/ti/msp430-gcc/bin/../lib/gcc/msp430-elf/8.3.0/libgcc.a(_eq_df.o)
 .text          0x0000000000000000        0x0 /home/howard/app/ti/msp430-gcc/bin/../lib/gcc/msp430-elf/8.3.0/libgcc.a(_gt_df.o)
 .data          0x0000000000000000        0x0 /home/howard/app/ti/msp430-gcc/bin/../lib/gcc/msp430-elf/8.3.0/libgcc.a(_gt_df.o)
 .bss           0x0000000000000000        0x0 /home/howard/app/ti/msp430-gcc/bin/../lib/gcc/msp430-elf/8.3.0/libgcc.a(_gt_df.o)
 .text.__gtdf2  0x0000000000000000       0x74 /home/howard/app/ti/msp430-gcc/bin/../lib/gcc/msp430-elf/8.3.0/libgcc.a(_gt_df.o)
 .text          0x0000000000000000        0x0 /home/howard/app/ti/msp430-gcc/bin/../lib/gcc/msp430-elf/8.3.0/libgcc.a(_ge_df.o)
 .data          0x0000000000000000        0x0 /home/howard/app/ti/msp430-gcc/bin/../lib/gcc/msp430-elf/8.3.0/libgcc.a(_ge_df.o)
 .bss           0x0000000000000000        0x0 /home/howard/app/ti/msp430-gcc/bin/../lib/gcc/msp430-elf/8.3.0/libgcc.a(_ge_df.o)
 .text.__gedf2  0x0000000000000000       0x74 /home/howard/app/ti/msp430-gcc/bin/../lib/gcc/msp430-elf/8.3.0/libgcc.a(_ge_df.o)
 .text          0x0000000000000000        0x0 /home/howard/app/ti/msp430-gcc/bin/../lib/gcc/msp430-elf/8.3.0/libgcc.a(_le_df.o)
 .data          0x0000000000000000        0x0 /home/howard/app/ti/msp430-gcc/bin/../lib/gcc/msp430-elf/8.3.0/libgcc.a(_le_df.o)
 .bss           0x0000000000000000        0x0 /home/howard/app/ti/msp430-gcc/bin/../lib/gcc/msp430-elf/8.3.0/libgcc.a(_le_df.o)
 .text.__ledf2  0x0000000000000000       0x74 /home/howard/app/ti/msp430-gcc/bin/../lib/gcc/msp430-elf/8.3.0/libgcc.a(_le_df.o)
 .text          0x0000000000000000        0x0 /home/howard/app/ti/msp430-gcc/bin/../lib/gcc/msp430-elf/8.3.0/libgcc.a(_unord_df.o)
 .data          0x0000000000000000        0x0 /home/howard/app/ti/msp430-gcc/bin/../lib/gcc/msp430-elf/8.3.0/libgcc.a(_unord_df.o)
 .bss           0x0000000000000000        0x0 /home/howard/app/ti/msp430-gcc/bin/../lib/gcc/msp430-elf/8.3.0/libgcc.a(_unord_df.o)
 .text.__unorddf2
                0x0000000000000000       0x66 /home/howard/app/ti/msp430-gcc/bin/../lib/gcc/msp430-elf/8.3.0/libgcc.a(_unord_df.o)
 .text          0x0000000000000000        0x0 /home/howard/app/ti/msp430-gcc/bin/../lib/gcc/msp430-elf/8.3.0/libgcc.a(_usi_to_df.o)
 .data          0x0000000000000000        0x0 /home/howard/app/ti/msp430-gcc/bin/../lib/gcc/msp430-elf/8.3.0/libgcc.a(_usi_to_df.o)
 .bss           0x0000000000000000        0x0 /home/howard/app/ti/msp430-gcc/bin/../lib/gcc/msp430-elf/8.3.0/libgcc.a(_usi_to_df.o)
 .text.__floatunsidf
                0x0000000000000000       0x62 /home/howard/app/ti/msp430-gcc/bin/../lib/gcc/msp430-elf/8.3.0/libgcc.a(_usi_to_df.o)
 .text          0x0000000000000000        0x0 /home/howard/app/ti/msp430-gcc/bin/../lib/gcc/msp430-elf/8.3.0/../../../../msp430-elf/lib/libcrt.a(crt_bss.o)
 .data          0x0000000000000000        0x0 /home/howard/app/ti/msp430-gcc/bin/../lib/gcc/msp430-elf/8.3.0/../../../../msp430-elf/lib/libcrt.a(crt_bss.o)
 .bss           0x0000000000000000        0x0 /home/howard/app/ti/msp430-gcc/bin/../lib/gcc/msp430-elf/8.3.0/../../../../msp430-elf/lib/libcrt.a(crt_bss.o)
 .text          0x0000000000000000        0x0 /home/howard/app/ti/msp430-gcc/bin/../lib/gcc/msp430-elf/8.3.0/../../../../msp430-elf/lib/libcrt.a(crt_movedata.o)
 .data          0x0000000000000000        0x0 /home/howard/app/ti/msp430-gcc/bin/../lib/gcc/msp430-elf/8.3.0/../../../../msp430-elf/lib/libcrt.a(crt_movedata.o)
 .bss           0x0000000000000000        0x0 /home/howard/app/ti/msp430-gcc/bin/../lib/gcc/msp430-elf/8.3.0/../../../../msp430-elf/lib/libcrt.a(crt_movedata.o)
 .text          0x0000000000000000        0x0 /home/howard/app/ti/msp430-gcc/bin/../lib/gcc/msp430-elf/8.3.0/../../../../msp430-elf/lib/libcrt.a(crt_main.o)
 .data          0x0000000000000000        0x0 /home/howard/app/ti/msp430-gcc/bin/../lib/gcc/msp430-elf/8.3.0/../../../../msp430-elf/lib/libcrt.a(crt_main.o)
 .bss           0x0000000000000000        0x0 /home/howard/app/ti/msp430-gcc/bin/../lib/gcc/msp430-elf/8.3.0/../../../../msp430-elf/lib/libcrt.a(crt_main.o)
 .text          0x0000000000000000        0x0 /home/howard/app/ti/msp430-gcc/bin/../lib/gcc/msp430-elf/8.3.0/../../../../msp430-elf/lib/libnosys.a(ciosyscalls.o)
 .data          0x0000000000000000        0x0 /home/howard/app/ti/msp430-gcc/bin/../lib/gcc/msp430-elf/8.3.0/../../../../msp430-elf/lib/libnosys.a(ciosyscalls.o)
 .bss           0x0000000000000000        0x0 /home/howard/app/ti/msp430-gcc/bin/../lib/gcc/msp430-elf/8.3.0/../../../../msp430-elf/lib/libnosys.a(ciosyscalls.o)
 .text.open     0x0000000000000000        0xe /home/howard/app/ti/msp430-gcc/bin/../lib/gcc/msp430-elf/8.3.0/../../../../msp430-elf/lib/libnosys.a(ciosyscalls.o)
 .text          0x0000000000000000        0x0 /home/howard/app/ti/msp430-gcc/bin/../lib/gcc/msp430-elf/8.3.0/../../../../msp430-elf/lib/libnosys.a(write.o)
 .data          0x0000000000000000        0x0 /home/howard/app/ti/msp430-gcc/bin/../lib/gcc/msp430-elf/8.3.0/../../../../msp430-elf/lib/libnosys.a(write.o)
 .bss           0x0000000000000000        0x0 /home/howard/app/ti/msp430-gcc/bin/../lib/gcc/msp430-elf/8.3.0/../../../../msp430-elf/lib/libnosys.a(write.o)
 .text          0x0000000000000000        0x0 /home/howard/app/ti/msp430-gcc/bin/../lib/gcc/msp430-elf/8.3.0/../../../../msp430-elf/lib/libnosys.a(sbrk.o)
 .data          0x0000000000000000        0x0 /home/howard/app/ti/msp430-gcc/bin/../lib/gcc/msp430-elf/8.3.0/../../../../msp430-elf/lib/libnosys.a(sbrk.o)
 .bss           0x0000000000000000        0x0 /home/howard/app/ti/msp430-gcc/bin/../lib/gcc/msp430-elf/8.3.0/../../../../msp430-elf/lib/libnosys.a(sbrk.o)
 .bss           0x0000000000000000        0x0 /home/howard/app/ti/msp430-gcc/bin/../lib/gcc/msp430-elf/8.3.0/../../../../msp430-elf/lib/libnosys.a(cio.o)
 .text          0x0000000000000000        0x0 /home/howard/app/ti/msp430-gcc/bin/../lib/gcc/msp430-elf/8.3.0/../../../../msp430-elf/lib/libc.a(lib_a-errno.o)
 .data          0x0000000000000000        0x0 /home/howard/app/ti/msp430-gcc/bin/../lib/gcc/msp430-elf/8.3.0/../../../../msp430-elf/lib/libc.a(lib_a-errno.o)
 .bss           0x0000000000000000        0x0 /home/howard/app/ti/msp430-gcc/bin/../lib/gcc/msp430-elf/8.3.0/../../../../msp430-elf/lib/libc.a(lib_a-errno.o)
 .text          0x0000000000000000        0x0 /home/howard/app/ti/msp430-gcc/bin/../lib/gcc/msp430-elf/8.3.0/crtend_no_eh.o
 .data          0x0000000000000000        0x0 /home/howard/app/ti/msp430-gcc/bin/../lib/gcc/msp430-elf/8.3.0/crtend_no_eh.o
 .bss           0x0000000000000000        0x0 /home/howard/app/ti/msp430-gcc/bin/../lib/gcc/msp430-elf/8.3.0/crtend_no_eh.o

Memory Configuration

Name             Origin             Length             Attributes
SFR              0x0000000000000000 0x0000000000000010
BSL              0x0000000000001000 0x0000000000000800
RAM              0x0000000000001c00 0x0000000000004000
INFOMEM          0x0000000000001800 0x0000000000000200
INFOA            0x0000000000001980 0x0000000000000080
INFOB            0x0000000000001900 0x0000000000000080
INFOC            0x0000000000001880 0x0000000000000080
INFOD            0x0000000000001800 0x0000000000000080
ROM              0x0000000000005c00 0x000000000000a380 xr
HIROM            0x0000000000010000 0x0000000000035bff xr
VECT1            0x000000000000ff80 0x0000000000000002
VECT2            0x000000000000ff82 0x0000000000000002
VECT3            0x000000000000ff84 0x0000000000000002
VECT4            0x000000000000ff86 0x0000000000000002
VECT5            0x000000000000ff88 0x0000000000000002
VECT6            0x000000000000ff8a 0x0000000000000002
VECT7            0x000000000000ff8c 0x0000000000000002
VECT8            0x000000000000ff8e 0x0000000000000002
VECT9            0x000000000000ff90 0x0000000000000002
VECT10           0x000000000000ff92 0x0000000000000002
VECT11           0x000000000000ff94 0x0000000000000002
VECT12           0x000000000000ff96 0x0000000000000002
VECT13           0x000000000000ff98 0x0000000000000002
VECT14           0x000000000000ff9a 0x0000000000000002
VECT15           0x000000000000ff9c 0x0000000000000002
VECT16           0x000000000000ff9e 0x0000000000000002
VECT17           0x000000000000ffa0 0x0000000000000002
VECT18           0x000000000000ffa2 0x0000000000000002
VECT19           0x000000000000ffa4 0x0000000000000002
VECT20           0x000000000000ffa6 0x0000000000000002
VECT21           0x000000000000ffa8 0x0000000000000002
VECT22           0x000000000000ffaa 0x0000000000000002
VECT23           0x000000000000ffac 0x0000000000000002
VECT24           0x000000000000ffae 0x0000000000000002
VECT25           0x000000000000ffb0 0x0000000000000002
VECT26           0x000000000000ffb2 0x0000000000000002
VECT27           0x000000000000ffb4 0x0000000000000002
VECT28           0x000000000000ffb6 0x0000000000000002
VECT29           0x000000000000ffb8 0x0000000000000002
VECT30           0x000000000000ffba 0x0000000000000002
VECT31           0x000000000000ffbc 0x0000000000000002
VECT32           0x000000000000ffbe 0x0000000000000002
VECT33           0x000000000000ffc0 0x0000000000000002
VECT34           0x000000000000ffc2 0x0000000000000002
VECT35           0x000000000000ffc4 0x0000000000000002
VECT36           0x000000000000ffc6 0x0000000000000002
VECT37           0x000000000000ffc8 0x0000000000000002
VECT38           0x000000000000ffca 0x0000000000000002
VECT39           0x000000000000ffcc 0x0000000000000002
VECT40           0x000000000000ffce 0x0000000000000002
VECT41           0x000000000000ffd0 0x0000000000000002
VECT42           0x000000000000ffd2 0x0000000000000002
VECT43           0x000000000000ffd4 0x0000000000000002
VECT44           0x000000000000ffd6 0x0000000000000002
VECT45           0x000000000000ffd8 0x0000000000000002
VECT46           0x000000000000ffda 0x0000000000000002
VECT47           0x000000000000ffdc 0x0000000000000002
VECT48           0x000000000000ffde 0x0000000000000002
VECT49           0x000000000000ffe0 0x0000000000000002
VECT50           0x000000000000ffe2 0x0000000000000002
VECT51           0x000000000000ffe4 0x0000000000000002
VECT52           0x000000000000ffe6 0x0000000000000002
VECT53           0x000000000000ffe8 0x0000000000000002
VECT54           0x000000000000ffea 0x0000000000000002
VECT55           0x000000000000ffec 0x0000000000000002
VECT56           0x000000000000ffee 0x0000000000000002
VECT57           0x000000000000fff0 0x0000000000000002
VECT58           0x000000000000fff2 0x0000000000000002
VECT59           0x000000000000fff4 0x0000000000000002
VECT60           0x000000000000fff6 0x0000000000000002
VECT61           0x000000000000fff8 0x0000000000000002
VECT62           0x000000000000fffa 0x0000000000000002
VECT63           0x000000000000fffc 0x0000000000000002
RESETVEC         0x000000000000fffe 0x0000000000000002
*default*        0x0000000000000000 0xffffffffffffffff

Linker script and memory map

LOAD /home/howard/app/ti/msp430-gcc/bin/../lib/gcc/msp430-elf/8.3.0/../../../../msp430-elf/lib/crt0.o
LOAD /home/howard/app/ti/msp430-gcc/bin/../lib/gcc/msp430-elf/8.3.0/crtbegin_no_eh.o
LOAD main.o
LOAD adc.o
LOAD common.o
LOAD debug.o
LOAD flash.o
LOAD GTM900C.o
LOAD hydrologytask.o
LOAD packet.o
LOAD rom.o
LOAD Sampler.o
LOAD timer.o
LOAD uart1.o
LOAD uart_config.o
LOAD blueTooth.o
LOAD Console.o
LOAD dtu.o
LOAD GSM.o
LOAD hydrologycommand.o
LOAD led.o
LOAD message.o
LOAD reportbinding.o
LOAD rtc.o
LOAD store.o
LOAD uart0.o
LOAD uart3.o
LOAD wifi_config.o
LOAD /home/howard/app/ti/msp430-gcc/bin/../lib/gcc/msp430-elf/8.3.0/libgcc.a
START GROUP
LOAD /home/howard/app/ti/msp430-gcc/bin/../lib/gcc/msp430-elf/8.3.0/libmul_f5.a
LOAD /home/howard/app/ti/msp430-gcc/bin/../lib/gcc/msp430-elf/8.3.0/../../../../msp430-elf/lib/libc.a
LOAD /home/howard/app/ti/msp430-gcc/bin/../lib/gcc/msp430-elf/8.3.0/libgcc.a
LOAD /home/howard/app/ti/msp430-gcc/bin/../lib/gcc/msp430-elf/8.3.0/../../../../msp430-elf/lib/libcrt.a
LOAD /home/howard/app/ti/msp430-gcc/bin/../lib/gcc/msp430-elf/8.3.0/../../../../msp430-elf/lib/libnosys.a
END GROUP

__interrupt_vector_1
 *(__interrupt_vector_1)

__interrupt_vector_2
 *(__interrupt_vector_2)

__interrupt_vector_3
 *(__interrupt_vector_3)

__interrupt_vector_4
 *(__interrupt_vector_4)

__interrupt_vector_5
 *(__interrupt_vector_5)

__interrupt_vector_6
 *(__interrupt_vector_6)

__interrupt_vector_7
 *(__interrupt_vector_7)

__interrupt_vector_8
 *(__interrupt_vector_8)

__interrupt_vector_9
 *(__interrupt_vector_9)

__interrupt_vector_10
 *(__interrupt_vector_10)

__interrupt_vector_11
 *(__interrupt_vector_11)

__interrupt_vector_12
 *(__interrupt_vector_12)

__interrupt_vector_13
 *(__interrupt_vector_13)

__interrupt_vector_14
 *(__interrupt_vector_14)

__interrupt_vector_15
 *(__interrupt_vector_15)

__interrupt_vector_16
 *(__interrupt_vector_16)

__interrupt_vector_17
 *(__interrupt_vector_17)

__interrupt_vector_18
 *(__interrupt_vector_18)

__interrupt_vector_19
 *(__interrupt_vector_19)

__interrupt_vector_20
 *(__interrupt_vector_20)

__interrupt_vector_21
 *(__interrupt_vector_21)

__interrupt_vector_22
 *(__interrupt_vector_22)

__interrupt_vector_23
 *(__interrupt_vector_23)

__interrupt_vector_24
 *(__interrupt_vector_24)

__interrupt_vector_25
 *(__interrupt_vector_25)

__interrupt_vector_26
 *(__interrupt_vector_26)

__interrupt_vector_27
 *(__interrupt_vector_27)

__interrupt_vector_28
 *(__interrupt_vector_28)

__interrupt_vector_29
 *(__interrupt_vector_29)

__interrupt_vector_30
 *(__interrupt_vector_30)

__interrupt_vector_31
 *(__interrupt_vector_31)

__interrupt_vector_32
 *(__interrupt_vector_32)

__interrupt_vector_33
 *(__interrupt_vector_33)

__interrupt_vector_34
 *(__interrupt_vector_34)

__interrupt_vector_35
 *(__interrupt_vector_35)

__interrupt_vector_36
 *(__interrupt_vector_36)

__interrupt_vector_37
 *(__interrupt_vector_37)

__interrupt_vector_38
 *(__interrupt_vector_38)

__interrupt_vector_39
 *(__interrupt_vector_39)

__interrupt_vector_40
 *(__interrupt_vector_40)

__interrupt_vector_41
 *(__interrupt_vector_41)

__interrupt_vector_42
 *(__interrupt_vector_42)
 *(__interrupt_vector_rtc)

__interrupt_vector_43
 *(__interrupt_vector_43)
 *(__interrupt_vector_port2)

__interrupt_vector_44
 *(__interrupt_vector_44)
 *(__interrupt_vector_usci_b3)

__interrupt_vector_45
 *(__interrupt_vector_45)
 *(__interrupt_vector_usci_a3)

__interrupt_vector_46
 *(__interrupt_vector_46)
 *(__interrupt_vector_usci_b1)

__interrupt_vector_47
 *(__interrupt_vector_47)
 *(__interrupt_vector_usci_a1)

__interrupt_vector_48
 *(__interrupt_vector_48)
 *(__interrupt_vector_port1)

__interrupt_vector_49
 *(__interrupt_vector_49)
 *(__interrupt_vector_timer1_a1)

__interrupt_vector_50
 *(__interrupt_vector_50)
 *(__interrupt_vector_timer1_a0)

__interrupt_vector_51
 *(__interrupt_vector_51)
 *(__interrupt_vector_dma)

__interrupt_vector_52
 *(__interrupt_vector_52)
 *(__interrupt_vector_usci_b2)

__interrupt_vector_53
 *(__interrupt_vector_53)
 *(__interrupt_vector_usci_a2)

__interrupt_vector_54
 *(__interrupt_vector_54)
 *(__interrupt_vector_timer0_a1)

__interrupt_vector_55
 *(__interrupt_vector_55)
 *(__interrupt_vector_timer0_a0)

__interrupt_vector_56
 *(__interrupt_vector_56)
 *(__interrupt_vector_adc12)

__interrupt_vector_57
 *(__interrupt_vector_57)
 *(__interrupt_vector_usci_b0)

__interrupt_vector_58
 *(__interrupt_vector_58)
 *(__interrupt_vector_usci_a0)

__interrupt_vector_59
 *(__interrupt_vector_59)
 *(__interrupt_vector_wdt)

__interrupt_vector_60
 *(__interrupt_vector_60)
 *(__interrupt_vector_timer0_b1)

__interrupt_vector_61
 *(__interrupt_vector_61)
 *(__interrupt_vector_timer0_b0)

__interrupt_vector_62
 *(__interrupt_vector_62)
 *(__interrupt_vector_unmi)

__interrupt_vector_63
 *(__interrupt_vector_63)
 *(__interrupt_vector_sysnmi)

__reset_vector  0x000000000000fffe        0x2
 *(__interrupt_vector_64)
 *(__interrupt_vector_reset)
 *(.resetvec)
 .resetvec      0x000000000000fffe        0x2 /home/howard/app/ti/msp430-gcc/bin/../lib/gcc/msp430-elf/8.3.0/../../../../msp430-elf/lib/crt0.o

.lower.rodata   0x0000000000005c00        0x0
                0x0000000000005c00                . = ALIGN (0x2)
 *(.lower.rodata.* .lower.rodata)

.rodata         0x0000000000005c00     0x1cf0
                0x0000000000005c00                . = ALIGN (0x2)
 *(.plt)
                0x0000000000005c00                . = ALIGN (0x2)
 *(.rodata .rodata.* .gnu.linkonce.r.* .const .const:*)
 .rodata        0x0000000000005c00       0x6b main.o
 .rodata        0x0000000000005c6b      0x175 common.o
 .rodata        0x0000000000005de0      0x844 GTM900C.o
 .rodata        0x0000000000006624        0xc rom.o
 .rodata        0x0000000000006630       0xb2 Sampler.o
 .rodata        0x00000000000066e2       0x12 uart1.o
 .rodata        0x00000000000066f4       0x62 uart_config.o
 .rodata        0x0000000000006756      0x212 blueTooth.o
 .rodata        0x0000000000006968       0x27 Console.o
 .rodata        0x000000000000698f      0x4f1 GSM.o
 .rodata        0x0000000000006e80       0x54 hydrologycommand.o
 .rodata        0x0000000000006ed4      0x312 message.o
                0x0000000000006fc8                chCRCLTalbe
                0x00000000000070c8                chCRCHTalbe
                0x00000000000071c8                Element_table
 .rodata        0x00000000000071e6       0x68 store.o
 .rodata        0x000000000000724e       0x1b uart0.o
 .rodata        0x0000000000007269       0x12 uart3.o
 .rodata        0x000000000000727b      0x3cb wifi_config.o
 .rodata.__thenan_df
                0x0000000000007646        0xe /home/howard/app/ti/msp430-gcc/bin/../lib/gcc/msp430-elf/8.3.0/libgcc.a(_thenan_df.o)
                0x0000000000007646                __thenan_df
 .rodata.__clz_tab
                0x0000000000007654      0x100 /home/howard/app/ti/msp430-gcc/bin/../lib/gcc/msp430-elf/8.3.0/libgcc.a(_clz.o)
                0x0000000000007654                __clz_tab
 .rodata        0x0000000000007754        0x2 /home/howard/app/ti/msp430-gcc/bin/../lib/gcc/msp430-elf/8.3.0/../../../../msp430-elf/lib/libc.a(lib_a-puts.o)
 .rodata._ctype_
                0x0000000000007756      0x101 /home/howard/app/ti/msp430-gcc/bin/../lib/gcc/msp430-elf/8.3.0/../../../../msp430-elf/lib/libc.a(lib_a-ctype_.o)
                0x0000000000007756                _ctype_
 *fill*         0x0000000000007857        0x1 
 .rodata.__sf_fake_stderr
                0x0000000000007858       0x12 /home/howard/app/ti/msp430-gcc/bin/../lib/gcc/msp430-elf/8.3.0/../../../../msp430-elf/lib/libc.a(lib_a-findfp.o)
                0x0000000000007858                __sf_fake_stderr
 .rodata.__sf_fake_stdout
                0x000000000000786a       0x12 /home/howard/app/ti/msp430-gcc/bin/../lib/gcc/msp430-elf/8.3.0/../../../../msp430-elf/lib/libc.a(lib_a-findfp.o)
                0x000000000000786a                __sf_fake_stdout
 .rodata.__sf_fake_stdin
                0x000000000000787c       0x12 /home/howard/app/ti/msp430-gcc/bin/../lib/gcc/msp430-elf/8.3.0/../../../../msp430-elf/lib/libc.a(lib_a-findfp.o)
                0x000000000000787c                __sf_fake_stdin
 .rodata._global_impure_ptr
                0x000000000000788e        0x2 /home/howard/app/ti/msp430-gcc/bin/../lib/gcc/msp430-elf/8.3.0/../../../../msp430-elf/lib/libc.a(lib_a-impure.o)
                0x000000000000788e                _global_impure_ptr
 .rodata        0x0000000000007890        0x2 /home/howard/app/ti/msp430-gcc/bin/../lib/gcc/msp430-elf/8.3.0/../../../../msp430-elf/lib/libc.a(lib_a-impure.o)
 .rodata        0x0000000000007892       0x11 /home/howard/app/ti/msp430-gcc/bin/../lib/gcc/msp430-elf/8.3.0/../../../../msp430-elf/lib/libc.a(lib_a-nano-svfprintf.o)
 .rodata        0x00000000000078a3       0x22 /home/howard/app/ti/msp430-gcc/bin/../lib/gcc/msp430-elf/8.3.0/../../../../msp430-elf/lib/libc.a(lib_a-nano-vfprintf_i.o)
 .rodata        0x00000000000078c5       0x11 /home/howard/app/ti/msp430-gcc/bin/../lib/gcc/msp430-elf/8.3.0/../../../../msp430-elf/lib/libc.a(lib_a-nano-vfprintf.o)
 .rodata        0x00000000000078d6       0x1a /home/howard/app/ti/msp430-gcc/bin/../lib/gcc/msp430-elf/8.3.0/../../../../msp430-elf/lib/libnosys.a(sbrk.o)
 *(.rodata1)
 *(.gcc_except_table)
 *(.gcc_except_table.*)

.rodata2        0x00000000000078f0       0x48
                0x00000000000078f0                . = ALIGN (0x2)
                [!provide]                        PROVIDE (__preinit_array_start, .)
 *(.preinit_array)
                [!provide]                        PROVIDE (__preinit_array_end, .)
                0x00000000000078f0                . = ALIGN (0x2)
                [!provide]                        PROVIDE (__init_array_start, .)
 *(SORT(.init_array.*))
 *(.init_array)
                [!provide]                        PROVIDE (__init_array_end, .)
                0x00000000000078f0                . = ALIGN (0x2)
                [!provide]                        PROVIDE (__fini_array_start, .)
 *(.fini_array)
 *(SORT(.fini_array.*))
                [!provide]                        PROVIDE (__fini_array_end, .)
                0x00000000000078f0                . = ALIGN (0x2)
 *(.eh_frame_hdr)
 *(.eh_frame)
 .eh_frame      0x00000000000078f0       0x44 /home/howard/app/ti/msp430-gcc/bin/../lib/gcc/msp430-elf/8.3.0/libgcc.a(_udivdi3.o)
 .eh_frame      0x0000000000007934        0x4 /home/howard/app/ti/msp430-gcc/bin/../lib/gcc/msp430-elf/8.3.0/crtend_no_eh.o
 *crtbegin*.o(.ctors)
 *(EXCLUDE_FILE(*crtend*.o) .ctors)
 *(SORT(.ctors.*))
 *(.ctors)
 *crtbegin*.o(.dtors)
 *(EXCLUDE_FILE(*crtend*.o) .dtors)
 *(SORT(.dtors.*))
 *(.dtors)

.upper.rodata
 *(.upper.rodata.* .upper.rodata)

.data           0x0000000000001c00      0x26e load address 0x0000000000007938
                0x0000000000001c00                . = ALIGN (0x2)
                0x0000000000001c00                PROVIDE (__datastart, .)
 *(.lower.data.* .lower.data)
                0x0000000000001c00                . = ALIGN (0x2)
 *(.either.data.* .either.data)
                0x0000000000001c00                . = ALIGN (0x2)
 *(.jcr)
 *(.data.rel.ro.local)
 *(.data.rel.ro*)
 *(.dynamic)
                0x0000000000001c00                . = ALIGN (0x2)
 *(.data .data.* .gnu.linkonce.d.*)
 .data          0x0000000000001c00        0x2 main.o
                0x0000000000001c00                IsDebug
 .data          0x0000000000001c02       0x20 adc.o
                0x0000000000001c02                A
 .data          0x0000000000001c22        0x2 common.o
                0x0000000000001c22                trace_open
 .data          0x0000000000001c24       0x12 GTM900C.o
                0x0000000000001c24                GPRSDataArrived
                0x0000000000001c26                unprocessedGPRSdata
                0x0000000000001c28                gprsConfigSuccess
                0x0000000000001c2a                RemainingData
                0x0000000000001c2c                _GTM900SendBufLeft
                0x0000000000001c2e                _ReceiveDataLen
                0x0000000000001c30                _ReceiveData
                0x0000000000001c32                dataLen
                0x0000000000001c34                psrc
 .data          0x0000000000001c36        0xc hydrologytask.o
                0x0000000000001c36                value
                0x0000000000001c3a                time_1s
                0x0000000000001c3c                time_1min
                0x0000000000001c3e                time_5min
                0x0000000000001c40                time_10min
 .data          0x0000000000001c42       0x48 Sampler.o
                0x0000000000001c42                ISR_Count_Temp
                0x0000000000001c48                long_3
                0x0000000000001c54                char_3
                0x0000000000001c58                long_2
                0x0000000000001c64                char_2
                0x0000000000001c68                long_1
                0x0000000000001c74                char_1
                0x0000000000001c78                count_pulse3
                0x0000000000001c7c                count_pulse2
                0x0000000000001c80                count_pulse1
                0x0000000000001c84                alert_str_idx
                0x0000000000001c86                g_pulse_rate
 .data          0x0000000000001c8a        0xc uart1.o
                0x0000000000001c8a                UART1_Tx_Len
                0x0000000000001c8c                UART1_Tx_Flag
                0x0000000000001c8e                UART1_Rx_RecvIndex
                0x0000000000001c90                UART1_Rx_INTLen
                0x0000000000001c92                UART1_Rx_INTIndex
                0x0000000000001c94                UART1_Tx_Buf
 .data          0x0000000000001c96        0x1 uart_config.o
                0x0000000000001c96                isUARTConfig
 *fill*         0x0000000000001c97        0x1 
 .data          0x0000000000001c98       0x1a blueTooth.o
                0x0000000000001c98                T_CommuteDevBLE
                0x0000000000001cae                sppflag
                0x0000000000001cb0                BLEINIT
 .data          0x0000000000001cb2       0x16 GSM.o
                0x0000000000001cb2                s_NetState
                0x0000000000001cb4                s_MsgLeft
                0x0000000000001cb6                s_MsgNum
                0x0000000000001cb8                s_ProcIdx
                0x0000000000001cba                s_RecvIdx
                0x0000000000001cbc                s_MsgDel
                0x0000000000001cbe                s_MsgOK
                0x0000000000001cc0                s_MsgFail
                0x0000000000001cc2                s_OOPS
                0x0000000000001cc4                s_RING
                0x0000000000001cc6                s_TimeOut
 .data          0x0000000000001cc8        0x1 hydrologycommand.o
                0x0000000000001cc8                IsQuery
 *fill*         0x0000000000001cc9        0x1 
 .data          0x0000000000001cca        0xe message.o
                0x0000000000001cca                HYDROLOGY_MODE
                0x0000000000001ccc                PacketSendTimes
                0x0000000000001cce                SinglePacketSendCount
                0x0000000000001cd0                RomElementBeginAddr
                0x0000000000001cd2                SinglePacketSize
                0x0000000000001cd4                RS485ElementCount
                0x0000000000001cd5                IO_STATUSElementCount
                0x0000000000001cd6                ISR_COUNTElementCount
                0x0000000000001cd7                ADCElementCount
 .data          0x0000000000001cd8       0x27 rtc.o
                0x0000000000001cd8                s_RTC_PulseBytes
                0x0000000000001ce4                s_RTC_EndIdx
                0x0000000000001ce5                s_RTC_StartIdx
                0x0000000000001ce6                s_RTC_ReportTime
                0x0000000000001ceb                s_RTC_SaveTime
                0x0000000000001cf0                s_RTC_CheckTime
                0x0000000000001cf5                s_RTC_lastTime
                0x0000000000001cfa                g_rtc_nowTime
 *fill*         0x0000000000001cff        0x1 
 .data          0x0000000000001d00        0x2 store.o
                0x0000000000001d00                contextlen
 .data          0x0000000000001d02       0x1a uart0.o
                0x0000000000001d02                ucount
                0x0000000000001d04                order_length
                0x0000000000001d06                flag_message
                0x0000000000001d08                real_count
                0x0000000000001d0a                uart0_count
                0x0000000000001d0c                Take_Photo_Count
                0x0000000000001d0e                UART0_Tx_Len
                0x0000000000001d10                UART0_Tx_Flag
                0x0000000000001d12                UART0_Rx_RecvIndex
                0x0000000000001d14                UART0_Rx_INTLen
                0x0000000000001d16                UART0_Rx_INTIndex
                0x0000000000001d18                UART0_Tx_Buf
                0x0000000000001d1a                IsGetInput
 .data          0x0000000000001d1c        0xe uart3.o
                0x0000000000001d1c                UART3_Tx_Len
                0x0000000000001d1e                UART3_Tx_Flag
                0x0000000000001d20                UART3_Rx_RecvIndex
                0x0000000000001d22                UART3_Rx_INTLen
                0x0000000000001d24                UART3_Rx_INTIndex
                0x0000000000001d26                UART3_Tx_Buf
                0x0000000000001d28                testcount
 .data          0x0000000000001d2a       0x56 wifi_config.o
                0x0000000000001d66                g_wifipwd
                0x0000000000001d70                g_ssidname
                0x0000000000001d7a                g_wifi_index
                0x0000000000001d7c                g_wifi_connetflag
                0x0000000000001d7e                WIFI_Inited_Flag
 .data.__ctype_ptr__
                0x0000000000001d80        0x2 /home/howard/app/ti/msp430-gcc/bin/../lib/gcc/msp430-elf/8.3.0/../../../../msp430-elf/lib/libc.a(lib_a-ctype_.o)
                0x0000000000001d80                __ctype_ptr__
 .data._impure_ptr
                0x0000000000001d82        0x2 /home/howard/app/ti/msp430-gcc/bin/../lib/gcc/msp430-elf/8.3.0/../../../../msp430-elf/lib/libc.a(lib_a-impure.o)
                0x0000000000001d82                _impure_ptr
 .data.impure_data
                0x0000000000001d84       0x78 /home/howard/app/ti/msp430-gcc/bin/../lib/gcc/msp430-elf/8.3.0/../../../../msp430-elf/lib/libc.a(lib_a-impure.o)
 .data.lc_ctype_charset
                0x0000000000001dfc       0x20 /home/howard/app/ti/msp430-gcc/bin/../lib/gcc/msp430-elf/8.3.0/../../../../msp430-elf/lib/libc.a(lib_a-locale.o)
 .data.__mb_cur_max
                0x0000000000001e1c        0x2 /home/howard/app/ti/msp430-gcc/bin/../lib/gcc/msp430-elf/8.3.0/../../../../msp430-elf/lib/libc.a(lib_a-locale.o)
                0x0000000000001e1c                __mb_cur_max
 .data.__wctomb
                0x0000000000001e1e        0x2 /home/howard/app/ti/msp430-gcc/bin/../lib/gcc/msp430-elf/8.3.0/../../../../msp430-elf/lib/libc.a(lib_a-wctomb_r.o)
                0x0000000000001e1e                __wctomb
 .data.heap.1463
                0x0000000000001e20        0x2 /home/howard/app/ti/msp430-gcc/bin/../lib/gcc/msp430-elf/8.3.0/../../../../msp430-elf/lib/libnosys.a(sbrk.o)
 .data          0x0000000000001e22       0x4b /home/howard/app/ti/msp430-gcc/bin/../lib/gcc/msp430-elf/8.3.0/../../../../msp430-elf/lib/libnosys.a(cio.o)
                0x0000000000001e22                __CIOBUF__
                0x0000000000001e22                _CIOBUF_
 *(.gnu.linkonce.d.*personality*)
 *(.data1)
 *(.got.plt)
 *(.got)
                0x0000000000001e6e                . = ALIGN (0x2)
 *fill*         0x0000000000001e6d        0x1 
 *(.sdata .sdata.* .gnu.linkonce.s.* D_2 D_1)
                0x0000000000001e6e                . = ALIGN (0x2)
                0x0000000000001e6e                _edata = .
                [!provide]                        PROVIDE (edata, .)
                [!provide]                        PROVIDE (__dataend, .)
                0x0000000000007938                PROVIDE (__romdatastart, LOADADDR (.data))
                0x000000000000026e                PROVIDE (__romdatacopysize, SIZEOF (.data))

.bss            0x0000000000001e6e      0xa28 load address 0x0000000000007ba6
                0x0000000000001e6e                . = ALIGN (0x2)
                0x0000000000001e6e                PROVIDE (__bssstart, .)
 *(.lower.bss.* .lower.bss)
                0x0000000000001e6e                . = ALIGN (0x2)
 *(.either.bss.* .either.bss)
 *(.dynbss)
 *(.sbss .sbss.*)
 *(.bss .bss.* .gnu.linkonce.b.*)
 .bss           0x0000000000001e6e        0x4 common.o
 .bss           0x0000000000001e72        0x6 hydrologytask.o
 .bss           0x0000000000001e78       0x10 Sampler.o
 .bss           0x0000000000001e88        0x4 timer.o
 .bss           0x0000000000001e8c        0x2 uart1.o
 .bss           0x0000000000001e8e        0x2 Console.o
 .bss           0x0000000000001e90        0x1 hydrologycommand.o
 *fill*         0x0000000000001e91        0x1 
 .bss           0x0000000000001e92        0x2 message.o
 .bss           0x0000000000001e94        0x2 uart0.o
 .bss           0x0000000000001e96        0x2 uart3.o
 .bss.__malloc_sbrk_start
                0x0000000000001e98        0x2 /home/howard/app/ti/msp430-gcc/bin/../lib/gcc/msp430-elf/8.3.0/../../../../msp430-elf/lib/libc.a(lib_a-nano-mallocr.o)
                0x0000000000001e98                __malloc_sbrk_start
 .bss.__malloc_free_list
                0x0000000000001e9a        0x2 /home/howard/app/ti/msp430-gcc/bin/../lib/gcc/msp430-elf/8.3.0/../../../../msp430-elf/lib/libc.a(lib_a-nano-mallocr.o)
                0x0000000000001e9a                __malloc_free_list
                0x0000000000001e9c                . = ALIGN (0x2)
 *(COMMON)
 COMMON         0x0000000000001e9c        0x9 common.o
                0x0000000000001e9c                analow
                0x0000000000001e9d                tthex
                0x0000000000001e9e                anahigh
                0x0000000000001e9f                pulsemedium
                0x0000000000001ea0                vtlow
                0x0000000000001ea1                vthigh
                0x0000000000001ea2                pulsehigh
                0x0000000000001ea3                switcher
                0x0000000000001ea4                pulselow
 *fill*         0x0000000000001ea5        0x1 
 COMMON         0x0000000000001ea6       0x19 GTM900C.o
                0x0000000000001ea6                centerIP
                0x0000000000001eb6                TelecomOperater
                0x0000000000001eb8                centerPort
 *fill*         0x0000000000001ebf        0x1 
 COMMON         0x0000000000001ec0       0x5a Sampler.o
                0x0000000000001ec0                g_pulse_range
                0x0000000000001ecc                alert_str
                0x0000000000001f08                i
                0x0000000000001f0a                s_alert_flag
 COMMON         0x0000000000001f1a      0x324 uart1.o
                0x0000000000001f1a                UART1_Rx_Buffer
                0x000000000000223a                UART1_Rx_BufLen
 COMMON         0x000000000000223e       0x22 GSM.o
                0x000000000000223e                main_time_error
                0x0000000000002240                s_MsgArray
                0x000000000000225e                g_work_mode
 COMMON         0x0000000000002260       0x7d message.o
                0x0000000000002260                g_HydrologyUpHeader
                0x0000000000002271                g_HydrologyMsg
                0x000000000000227c                g_HydrologyDownHeader
                0x000000000000228d                inputPara
 *fill*         0x00000000000022dd        0x1 
 COMMON         0x00000000000022de      0x290 uart0.o
                0x00000000000022de                uart0_test
                0x00000000000022e0                UART0_Rx_Buffer
                0x0000000000002565                test
                0x0000000000002568                UART0_Rx_BufLen
 COMMON         0x000000000000256e      0x326 uart3.o
                0x000000000000256e                testbuf
                0x0000000000002570                UART3_Rx_BufLen
                0x0000000000002574                UART3_Rx_Buffer
 COMMON         0x0000000000002894        0x2 /home/howard/app/ti/msp430-gcc/bin/../lib/gcc/msp430-elf/8.3.0/../../../../msp430-elf/lib/libc.a(lib_a-reent.o)
                0x0000000000002894                errno
                [!provide]                        PROVIDE (__bssend, .)
                0x0000000000000a28                PROVIDE (__bsssize, SIZEOF (.bss))

.noinit         0x0000000000002896        0x0 load address 0x0000000000007ba6
                0x0000000000002896                . = ALIGN (0x2)
                [!provide]                        PROVIDE (__noinit_start, .)
 *(.noinit)
                0x0000000000002896                . = ALIGN (0x2)
                [!provide]                        PROVIDE (__noinit_end, .)

.heap           0x0000000000002896        0x4 load address 0x0000000000007ba6
                0x0000000000002896                . = ALIGN (0x2)
                0x0000000000002896                __heap_start__ = .
                0x0000000000002896                _end = __heap_start__
                0x0000000000002896                PROVIDE (end, .)
 *(.heap)
                0x0000000000002896                _end = .
                [!provide]                        PROVIDE (end, .)
                0x0000000000002896        0x4 LONG 0x0
                0x000000000000289a                __heap_end__ = .
                0x000000000000289a                __HeapLimit = __heap_end__

.stack          0x0000000000005c00        0x0
                0x0000000000005c00                PROVIDE (__stack, .)
 *(.stack)

.lowtext        0x0000000000007ba6       0x2c
                0x0000000000007ba6                PROVIDE (_start, .)
                0x0000000000007ba6                . = ALIGN (0x2)
 *(SORT(.crt_*))
 .crt_0000start
                0x0000000000007ba6        0x4 /home/howard/app/ti/msp430-gcc/bin/../lib/gcc/msp430-elf/8.3.0/../../../../msp430-elf/lib/crt0.o
                0x0000000000007ba6                __crt0_start
 .crt_0100init_bss
                0x0000000000007baa        0xe /home/howard/app/ti/msp430-gcc/bin/../lib/gcc/msp430-elf/8.3.0/../../../../msp430-elf/lib/libcrt.a(crt_bss.o)
                0x0000000000007baa                __crt0_init_bss
 .crt_0300movedata
                0x0000000000007bb8       0x14 /home/howard/app/ti/msp430-gcc/bin/../lib/gcc/msp430-elf/8.3.0/../../../../msp430-elf/lib/libcrt.a(crt_movedata.o)
                0x0000000000007bb8                __crt0_movedata
 .crt_0800call_main
                0x0000000000007bcc        0x6 /home/howard/app/ti/msp430-gcc/bin/../lib/gcc/msp430-elf/8.3.0/../../../../msp430-elf/lib/libcrt.a(crt_main.o)
                0x0000000000007bcc                __crt0_call_main
 *(.lowtext)

.lower.text     0x0000000000007bd2        0x0
                0x0000000000007bd2                . = ALIGN (0x2)
 *(.lower.text.* .lower.text)

.text           0x0000000000007bd2    0x15d2e
                0x0000000000007bd2                . = ALIGN (0x2)
 *(.text .stub .text.* .gnu.linkonce.t.* .text:*)
 .text          0x0000000000007bd2      0x2dc main.o
                0x0000000000007bd2                Restart_Init
                0x0000000000007c24                Restart_GSMInit
                0x0000000000007d28                Restart_DTUInit
                0x0000000000007d9e                WorkMode_Init
                0x0000000000007dee                Main_Init
                0x0000000000007e08                main
                0x0000000000007e7a                Main_GotoSleep
 .text          0x0000000000007eae      0x5b0 adc.o
                0x0000000000007eae                ADC_Open
                0x0000000000007f46                ADC_ReadAnalogStr
                0x0000000000007f68                ADC_Sample
                0x0000000000008452                ADC_Close
 .text          0x000000000000845e     0x2096 common.o
                0x0000000000008538                TraceOpen
                0x000000000000854a                TraceFunctionLine
                0x000000000000856c                TraceHexMsgFuncLine
                0x000000000000858e                TraceMsgFuncLine
                0x00000000000085ba                TraceStrFuncLine
                0x00000000000085f4                hex_2_ascii
                0x0000000000008654                Utility_atoi
                0x000000000000867a                System_Delayms
                0x00000000000086a6                System_Delayus
                0x00000000000086d0                DownInt
                0x00000000000086da                UpInt
                0x00000000000086f6                DsP2Int
                0x000000000000870a                EnP2Int
                0x000000000000871e                DsInt
                0x0000000000008724                EnInt
                0x000000000000872c                Max3222_Open
                0x000000000000873a                Max3222_Close
                0x0000000000008748                Select_Debug_Mode
                0x0000000000008760                System_Reset
                0x0000000000008778                Clock_SMCLK_DIV
                0x00000000000087e8                Clock_ACLK_DIV
                0x0000000000008858                Set_Vcore
                0x000000000000889e                Clock_Init
                0x00000000000088f4                Utility_CheckDigital
                0x000000000000891a                Utility_CheckAlphabet
                0x000000000000894e                Utility_CheckHexChar
                0x0000000000008992                Utility_CheckBinary
                0x00000000000089b6                Utility_CheckIp
                0x0000000000008a30                Utility_BytesCompare3
                0x0000000000008a78                Utility_Strlen
                0x0000000000008a8e                Utility_Strncpy
                0x0000000000008aaa                Utility_GetGprsServerIp
                0x0000000000008b1e                Utility_GetGprsServerPort
                0x0000000000008b92                Utility_GetGprsServerApn
                0x0000000000008c06                Utility_Strncmp
                0x0000000000008c2a                Utility_CharToHex
                0x0000000000008c6e                Utility_DecStr7ToBytes3
                0x0000000000008cf6                Utility_UintToStr4
                0x0000000000008d58                TraceInt4FuncLine
                0x0000000000008d9c                Utility_Bytes3ToDecStr7
                0x0000000000008e46                TracePulseValue
                0x0000000000008e80                Utility_UintToStr3
                0x0000000000008eca                Utility_UintToStr2
                0x0000000000008ef8                Utility_UintToStr1
                0x0000000000008f12                IntTo0xInt
                0x0000000000009040                ConvertHexChar
                0x0000000000009084                ConvertAscIItoHex
                0x00000000000090c6                Utility_Time_AddSecond
                0x0000000000009122                Utility_Time_AddMinute
                0x0000000000009168                Utility_Time_AddHour
                0x0000000000009194                Utility_Time_AddDay
                0x00000000000091a8                Utility_Time_AddMonth
                0x00000000000091ca                Utility_CalculateNextReportTimeBytes
                0x0000000000009506                Utility_CalculateNextCameraGoTimes
                0x0000000000009842                Utility_CalculateNextSaveTimeBytes
                0x0000000000009b7e                Utility_CalculateNextCheckTimeBytes
                0x0000000000009bba                Utility_Is_A_CheckTime
                0x0000000000009bd2                Utility_Is_A_SaveTime
                0x0000000000009e5e                Utility_Is_A_ReportTime
                0x000000000000a0ea                Utility_Is_A_CameraTime
                0x000000000000a376                Utility_PackRuestTimeMsg
                0x000000000000a39a                Utility_PackOKMsg
                0x000000000000a3f4                Utility_PackFailMsg
                0x000000000000a428                Utility_PackRejectMsg
                0x000000000000a46e                Utility_PackErrorMsg
                0x000000000000a4a8                Utility_PackBadMsg
                0x000000000000a4d6                Clear_ExternWatchdog
 .text          0x000000000000a4f4     0x1d0a GTM900C.o
                0x000000000000a4f4                GPRS_Print_Error
                0x000000000000a6f8                GPRS_AT_SetAPN_Response
                0x000000000000a6fc                GPRS_AT_ActiveGPRSNet_Response
                0x000000000000a700                GPRS_AT_CheckSimStat_Response
                0x000000000000a76e                GPRS_AT_QueryOperater_Response
                0x000000000000a7d4                GPRS_AT_QueryIP_Response
                0x000000000000a83e                GPRS_AT_OpenTCPLink_Response
                0x000000000000a842                GPRS_AT_QueryTCPLink_Response
                0x000000000000a8ac                GPRS_AT_CloseTCPLink_Response
                0x000000000000a91c                GPRS_AT_QuitGPRSNet_Response
                0x000000000000a98c                GPRS_AT_SetIOMode_Response
                0x000000000000a9a2                GRPS_AT_Send_Response
                0x000000000000aa2c                GPRS_AT_QueryRemainData_Response
                0x000000000000aaa0                GRPS_AT_Receive_Response
                0x000000000000ab7a                GPRS_AT_OFF_CALL_Response
                0x000000000000ab7e                GPRS_SubProc_AT_ResponseTwo
                0x000000000000abf0                GPRS_WriteBytes
                0x000000000000abfa                judgeintlen
                0x000000000000ac46                judgeportlen
                0x000000000000aca8                GPRS_OFF_CALL
                0x000000000000acfe                GPRS_AT_OFF_CALL
                0x000000000000ad58                GPRS_SubProc_AT_ResponseOne
                0x000000000000ae56                GPRS_Proc_AT_Response
                0x000000000000af54                GPRS_ClearRecvBuf
                0x000000000000af5c                GPRS_PrepareForSend
                0x000000000000af94                GPRS_AT_SetAPN
                0x000000000000b0c8                GPRS_AT_ActiveGPRSNet
                0x000000000000b182                GPRS_AT_CheckSimStat
                0x000000000000b232                GPRS_AT_QueryOperater
                0x000000000000b2c2                GPRS_AT_QueryIP
                0x000000000000b34c                GPRS_AT_OpenTCPLink
                0x000000000000b914                GPRS_AT_QueryTCPLink
                0x000000000000b9a6                GPRS_AT_CloseTCPLink
                0x000000000000bab4                GPRS_AT_QuitGPRSNet
                0x000000000000bbbe                GPRS_AT_SetIOMode
                0x000000000000bc94                GRPS_AT_Send
                0x000000000000bd8e                GRPS_AT_QueryRemainData
                0x000000000000be02                GRPS_AT_Receive
                0x000000000000be88                GPRS_Create_TCP_Link
                0x000000000000bf76                GPRS_Close_TCP_Link
                0x000000000000bfbe                GPRS_Close_GSM
                0x000000000000bfd2                GPRS_Send
                0x000000000000c072                GPRS_QueryRemainData
                0x000000000000c086                GPRS_Receive
                0x000000000000c124                JudgeServerDataArrived
                0x000000000000c198                Hydrology_ProcessGPRSReceieve
 .text          0x000000000000c1fe      0x4d6 hydrologytask.o
                0x000000000000c1fe                HydrologyTimeBase
                0x000000000000c20c                convertSampleTimetoHydrology
                0x000000000000c24a                convertSendTimetoHydrology
                0x000000000000c292                ConvertAnalog
                0x000000000000c308                ADC_Element
                0x000000000000c390                HydrologyOneMinute
                0x000000000000c5c2                HydrologyOnline
                0x000000000000c5d6                HydrologyOffline
                0x000000000000c5e2                HydrologyInstantWaterLevel
                0x000000000000c68c                HydrologyVoltage
                0x000000000000c690                HydrologyTask
 .text          0x000000000000c6d4      0x792 rom.o
                0x000000000000c6d4                ROM_WP_OFF
                0x000000000000c706                ROM_WP_ON
                0x000000000000c738                I2C_Set_sda_high
                0x000000000000c746                I2C_Set_sda_low
                0x000000000000c754                I2C_Set_sck_high
                0x000000000000c762                I2C_Set_sck_low
                0x000000000000c770                I2C_GetACK
                0x000000000000c7b2                I2C_SetACK
                0x000000000000c7c8                I2C_SetNAK
                0x000000000000c7de                I2C_START
                0x000000000000c81a                I2C_STOP
                0x000000000000c85e                I2C_Initial
                0x000000000000c86c                ROM_Init
                0x000000000000c87a                I2C_TxByte
                0x000000000000c8c8                ROM_WriteByte_RTC
                0x000000000000c99e                ROM_WriteByte
                0x000000000000cb2e                ROM_WriteBytes
                0x000000000000cc54                I2C_RxByte
                0x000000000000cca4                ROM_ReadByte
                0x000000000000cd6c                ROM_ReadBytes
 .text          0x000000000000ce66      0xb60 Sampler.o
                0x000000000000ce66                Sampler_Init
                0x000000000000cf06                Sampler_IO_Level
                0x000000000000cfa4                Sampler_Open
                0x000000000000cfbc                Sampler_Close
                0x000000000000cfcc                Sampler_Sample
                0x000000000000cfd4                Sampler_GSM_ReadAlertString
                0x000000000000d130                Sampler_DTU_ReadAlertString
                0x000000000000d142                Sampler_CheckNormal
                0x000000000000d380                Sampler_SaveData
                0x000000000000d584                chartolong
                0x000000000000d5ae                longtochar
                0x000000000000d5c0                ISR_Count_Cal
                0x000000000000d654                PORT1_ISR
 .text          0x000000000000d9c6      0x130 timer.o
                0x000000000000d9c6                Timer_Zero
                0x000000000000d9cc                Timer_Passed_Mins
                0x000000000000d9da                TimerA_Init
                0x000000000000d9fc                WatchDog_Init
                0x000000000000da04                WatchDog_Clear
                0x000000000000da0c                TimerB_Init
                0x000000000000da44                TimerB_Clear
                0x000000000000da4a                TimerA0_Init
                0x000000000000da6e                TIMER0A0_ISR
                0x000000000000da9e                TIMERA0_ISR
                0x000000000000dab2                TIMERB0_ISR
                0x000000000000dab4                TIMERB1_ISR
 .text          0x000000000000daf6      0x4a2 uart1.o
                0x000000000000daf6                UART1_ClearBuffer
                0x000000000000db2c                UART1_Open
                0x000000000000db64                UART1_Open_9600
                0x000000000000db9c                UART1_Close
                0x000000000000dba6                UART1_Send
                0x000000000000dc42                UART1_SendtoInt
                0x000000000000dc58                UART1_RecvLine
                0x000000000000dcca                UART1_RecvLineTry
                0x000000000000dd6a                UART1_RecvLineWait
                0x000000000000ddf6                UART1_RecvLineLongWait
                0x000000000000de82                Judge_Watermeter
                0x000000000000deb2                UART1_RX_ISR
 .text          0x000000000000df98       0x84 uart_config.o
                0x000000000000df98                Hydrology_ProcessUARTReceieve
                0x000000000000dfea                Hydrology_InitWaitConfig
 .text          0x000000000000e01c      0xd4a blueTooth.o
                0x000000000000e01c                ble_sppflag
                0x000000000000e022                ble_isinit
                0x000000000000e028                BLE_buffer_Clear
                0x000000000000e02e                SPPTX
                0x000000000000e08a                ble_getMsg
                0x000000000000e090                BLE_SendAtCmd
                0x000000000000e0da                BLE_SendMsg
                0x000000000000e0e2                SPPRX
                0x000000000000e11e                ble_sendMsg
                0x000000000000e126                BLE_Close
                0x000000000000e12c                BLE_RecvLineTry
                0x000000000000e148                BLE_RecAt
                0x000000000000e1ac                BLE_ATE
                0x000000000000e234                ATTEST
                0x000000000000e2e8                BLE_SetName
                0x000000000000e352                BLE_SERVER
                0x000000000000e3f6                BLE_GATTSSRVCRE
                0x000000000000e4c4                BLE_GATTSSRVSTART
                0x000000000000e558                BLE_ADVSTART
                0x000000000000e5c2                BLE_Open
                0x000000000000e658                BLE_BLESPPCFG
                0x000000000000e6c2                BLE_BLESP
                0x000000000000e77c                BLE_BLESPP
                0x000000000000e7c2                ble_open
                0x000000000000e7c8                BLE_BLESPPEND
                0x000000000000e84c                ble_close
                0x000000000000e852                BLE_CONNECT
                0x000000000000e902                ble_isCanUse
                0x000000000000e91a                BLE_ADVSTOP
                0x000000000000e99c                BLE_RST
                0x000000000000ea20                BLE_INIT
                0x000000000000eab0                ble_rst
                0x000000000000eab6                BLE_SLEEP
                0x000000000000ebba                BLE_MAIN
                0x000000000000ed48                ble_init
                0x000000000000ed5c                BleDriverInstall
 .text          0x000000000000ed66      0x186 Console.o
                0x000000000000ed66                Console_Open
                0x000000000000ed74                Console_Close
                0x000000000000ed7c                Console_WriteString
                0x000000000000edbe                Console_WriteStringln
                0x000000000000ee00                Console_WriteBytes
                0x000000000000ee2c                Console_WriteBytesln
                0x000000000000ee58                Console_WriteHexCharln
                0x000000000000eeb0                Console_WriteInt
                0x000000000000eec6                Console_WriteErrorStringlnFuncLine
 .text          0x000000000000eeec     0x3294 GSM.o
                0x000000000000eeec                GSM_Open
                0x000000000000ef78                GSM_HardReboot
                0x000000000000efd6                GSM_GetMsgStore
                0x000000000000f036                GSM_GetRePhone
                0x000000000000f0e0                GSM_AT_SetMsgNotify
                0x000000000000f19e                GSM_AT_OffCall
                0x000000000000f202                GSM_DealData
                0x000000000000f2e6                GSM_DealAllData
                0x000000000000f31a                GSM_AT_QueryStore
                0x000000000000f440                GSM_AT_QuerySim
                0x000000000000f53a                GSM_AT_QueryNet
                0x000000000000f5fe                GSM_CheckLive
                0x000000000000f696                GSM_AT_SetMsgmode
                0x000000000000f77e                GSM_AT_CloseFeedback
                0x000000000000f898                GSM_Init
                0x000000000000f938                GSM_CheckOK
                0x000000000000f96c                GSM_Waiting_Process
                0x000000000000fa00                GSM_AT_DeleteMsg
                0x000000000000fb36                GSM_CallLeader
                0x000000000000fc60                GSM_AT_QuitInput
                0x000000000000fc7a                GSM_SendMsgTxt
                0x000000000000fe16                GSM_Report_Process
                0x00000000000100da                GSM_Alert_Process
                0x00000000000101e4                GSM_AT_ShutDown
                0x00000000000102c8                GSM_Close
                0x0000000000010316                GSM_ProcMsgData
                0x0000000000011ca4                GSM_ProcMessageTxt
                0x0000000000011fa4                GSM_ProcMsgArray
                0x0000000000012010                GSM_StartCheckSIM
                0x0000000000012086                GSM_EndCheckSIM
                0x00000000000120e2                GSM_Process
 .text          0x0000000000012180     0x1e26 hydrologycommand.o
                0x0000000000012180                RS485_Dir
                0x00000000000121a0                RS485_SerilWrite
                0x00000000000121a8                RS485_SerilRead
                0x00000000000121b4                RS485_Delayms
                0x00000000000121ba                RS485_Delayus
                0x00000000000121c0                RS485_ValueDefine
                0x00000000000122aa                RS485_Send
                0x0000000000012318                RS485_Read
                0x000000000001238c                Hydrology_ReadRS485
                0x0000000000012482                Hydrology_ReadIO_STATUS
                0x0000000000012554                Hydrology_SetIO_STATUS
                0x0000000000012564                hydrologyChangeMode
                0x0000000000012566                hydrologyConfigSelect
                0x00000000000126d4                hydrologyReadSelect
                0x0000000000012842                hydrologyBasicInfoConfig
                0x00000000000128a8                hydrologyBasicInfoRead
                0x000000000001290e                hydrologySetParaSelect
                0x0000000000012f5e                hydrologyReadParaSelect
                0x00000000000135ae                hydrologySetPara
                0x0000000000013614                hydrologyReadPara
                0x000000000001367a                hydrologyInitializeSolidStorage
                0x00000000000136e4                Hydrology_Reset
                0x0000000000013c36                Hydrology_SetPassword
                0x0000000000013c66                hydrologySetClock
                0x0000000000013c82                hydrologySetICCard
                0x0000000000013cb2                hydrologyPump
                0x0000000000013cf8                hydrologyValve
                0x0000000000013d3e                hydrologyGate
                0x0000000000013d86                hydrologyWaterSetting
                0x0000000000013db8                HydrologyRecord
                0x0000000000013e08                hydrologyCommand
                0x0000000000013edc                HydrologyReadSuiteElement
 .text          0x0000000000013fa6      0x2ae led.o
                0x0000000000013fa6                Led_Init
                0x0000000000013fe4                Led1_On
                0x0000000000013fea                Led2_On
                0x0000000000013ff0                Led3_On
                0x0000000000013ff6                Led4_On
                0x0000000000013ffc                Led5_On
                0x0000000000014002                Led6_On
                0x000000000001400a                Led1_Off
                0x0000000000014010                Led2_Off
                0x0000000000014016                Led3_Off
                0x000000000001401c                Led4_Off
                0x0000000000014022                Led5_Off
                0x0000000000014028                Led6_Off
                0x0000000000014030                Led_Round
                0x00000000000140e2                Led_OffAll
                0x00000000000140fe                Led_OnAll
                0x000000000001411a                Led_LongOn
                0x000000000001412c                Led1_WARN
                0x000000000001416e                Led2_WARN
                0x0000000000014170                Led3_WARN
                0x00000000000141b2                Led4_WARN
                0x00000000000141f4                Led_WARN
                0x0000000000014236                Led_Flash
 .text          0x0000000000014254     0x19c8 message.o
                0x0000000000014254                Hydrology_ReadStoreInfo
                0x00000000000142bc                Hydrology_WriteStoreInfo
                0x0000000000014324                Hydrology_ReadTime
                0x0000000000014342                Hydrology_SetTime
                0x0000000000014360                Hydrology_SendData
                0x00000000000143e6                Hydrology_Printf
                0x00000000000143f6                Hydrology_SetRTUType
                0x0000000000014404                Hydrology_ReadObservationTime
                0x000000000001448e                Hydrology_SetObservationTime
                0x0000000000014518                getBCDnums
                0x000000000001466e                getEvenNum
                0x0000000000014676                getguideid
                0x0000000000014698                converToHexElement
                0x00000000000147f6                mallocElement
                0x0000000000014870                hydrologyJudgeType
                0x0000000000014986                Hydrology_ReadAnalog
                0x00000000000149b2                Hydrology_ReadPulse
                0x00000000000149de                Hydrology_ReadSwitch
                0x0000000000014a04                Hydrology_ReadRom
                0x0000000000014a34                Hydrology_CalElementInfo
                0x0000000000014cf8                hydrologyMakeUpHeader
                0x0000000000014d94                getstreamid
                0x0000000000014dba                hydrologyMakeUpBodyBasicInfo
                0x0000000000014fbe                hydrologyMakeUpBody
                0x000000000001508e                hydrologyCRC16
                0x00000000000150ba                hydrologyCheck
                0x0000000000015148                hydrologyMakeDownHeader
                0x0000000000015242                hydrologyNeedEditElement
                0x000000000001536c                hydrologyMakeDownBody
                0x00000000000154b2                hydrologyMakeUpTail
                0x00000000000157ee                hydrologyInitSend
                0x0000000000015886                hydrologyExitSend
                0x0000000000015930                hydrologyProcessSend
                0x0000000000015996                hydrologyNeedRespond
                0x0000000000015ad0                hydrologyQueryRespond
                0x0000000000015b0e                hydrologyInitReceieve
                0x0000000000015b50                hydrologyExitReceieve
                0x0000000000015bc0                hydrologyProcessReceieve
 .text          0x0000000000015c1c     0x1bbe rtc.o
                0x0000000000015c1c                RTC_IsBadTime
                0x0000000000015d2e                RTC_IsPassed
                0x0000000000015da8                _RTC_DisableWrite
                0x0000000000015daa                _RTC_EnableWrite
                0x0000000000015dac                _RTC_WriteRAM
                0x0000000000015dd6                RTC_SetStartIdx
                0x0000000000015df6                RTC_SetEndIdx
                0x0000000000015e16                RTC_RetrieveIndex
                0x0000000000015f0e                RTC_SetCheckTimeBytes
                0x0000000000015f76                RTC_SetSaveTimeBytes
                0x0000000000015fde                RTC_SetReportTimeBytes
                0x0000000000016046                RTC_SetPulseBytes
                0x00000000000160b2                RTC_IncPulseBytes
                0x00000000000161b6                _RTC_ReadRAM
                0x00000000000161ec                RTC_ReadStartIdx
                0x000000000001624a                RTC_ReadEndIdx
                0x00000000000162a8                RTC_ReadCheckTimeBytes
                0x000000000001638a                RTC_ReadCheckTimeStr5_A
                0x0000000000016494                RTC_ReadSaveTimeBytes
                0x0000000000016576                RTC_ReadSaveTimeStr5_A
                0x0000000000016682                RTC_ReadReportTimeBytes
                0x0000000000016764                RTC_ReadReportTimeStr5_A
                0x0000000000016870                RTC_RetrievePulseBytes
                0x0000000000016900                RTC_ReadPulseBytes
                0x00000000000169a6                _BCDtoDEC
                0x00000000000169c0                _DECtoBCD
                0x00000000000169e4                _RTC_delay
                0x00000000000169f0                RTC_Close
                0x00000000000169f4                _RTC_Set_RST_low
                0x00000000000169fc                _RTC_Set_RST_high
                0x0000000000016a04                _RTC_Set_SCLK_low
                0x0000000000016a0a                _RTC_Set_SCLK_high
                0x0000000000016a10                _RTC_Set_IO_low
                0x0000000000016a16                _RTC_Set_IO_high
                0x0000000000016a1c                _RTC_Set_IO_IN
                0x0000000000016a22                _RTC_RecvByte
                0x0000000000016a66                _RTC_Set_IO_OUT
                0x0000000000016a6c                _RTC_SendByte
                0x0000000000016aaa                _RTC_MultiRead
                0x0000000000016adc                _RTC_MultiWrite
                0x0000000000016b0c                IIC_SCL_HIGH
                0x0000000000016b12                IIC_SCL_LOW
                0x0000000000016b18                IIC_SDA_HIGH
                0x0000000000016b1e                IIC_SDA_LOW
                0x0000000000016b24                READ_SDA
                0x0000000000016b32                IIC_Init
                0x0000000000016b34                IIC_Start
                0x0000000000016b66                IIC_Stop
                0x0000000000016b98                IIC_Wait_Ack
                0x0000000000016be0                IIC_Ack
                0x0000000000016c12                IIC_NAck
                0x0000000000016c44                IIC_Send_Byte
                0x0000000000016ca6                _RTC_Write_OneByte
                0x0000000000016cd4                _RTC_SetTime
                0x0000000000016df0                RTC_SetTimeStr6_A
                0x0000000000016ea6                RTC_SetTimeStr6_B
                0x0000000000016f5c                RTC_SetTimeBytes6
                0x0000000000016f9a                RTC_Open
                0x0000000000016fde                IIC_Read_Byte
                0x000000000001703e                _RTC_Read_OneByte
                0x000000000001707a                _RTC_ReadSecond
                0x0000000000017086                RTC_SetTimeStr5_B
                0x0000000000017128                RTC_SetTimeBytes5
                0x0000000000017166                _RTC_ReadTime
                0x000000000001721e                RTC_ReadTimeStr6_A
                0x0000000000017376                RTC_ReadTimeStr5_A
                0x00000000000174a4                RTC_ReadTimeStr6_B
                0x00000000000175de                RTC_ReadTimeStr5_B
                0x00000000000176f4                RTC_ReadTimeBytes5
                0x0000000000017744                RTC_ReadTimeBytes6
                0x000000000001778e                _RTC_Go
                0x00000000000177a2                _RTC_Pause
                0x00000000000177b6                _RTC_Check
 .text          0x00000000000177da     0x12ce store.o
                0x00000000000177da                Store_Init
                0x00000000000177e0                Store_ReadDataMaxStr
                0x0000000000017842                Store_ReadDataMaxInt
                0x000000000001789e                Store_SetDataMaxInt
                0x0000000000017902                Store_ReadDataMinStr
                0x0000000000017968                Store_ReadDataMinInt
                0x00000000000179c8                Store_SetDataMinInt
                0x0000000000017a22                Store_ReadConfig
                0x0000000000017a46                Store_SetConfig
                0x0000000000017a6a                Store_ReadDeviceNO
                0x0000000000017a92                Store_SetDeviceNO
                0x0000000000017aba                Store_ReadPassword
                0x0000000000017ae2                Store_SetPassword
                0x0000000000017b0a                Store_SetWIFIConfigFlag
                0x0000000000017b32                Store_ReadWIFIConfigFlag
                0x0000000000017b5a                Store_ReadWorkMode
                0x0000000000017b84                Store_SetWorkMode
                0x0000000000017bae                Store_ReadSystemType
                0x0000000000017bd8                Store_SetSystemType
                0x0000000000017bf0                Store_ReadAnalogSelect
                0x0000000000017c1a                Store_SetAnalogSelect
                0x0000000000017c32                Store_SetAnalogSelectStr
                0x0000000000017c6a                Store_ReadPulseSelect
                0x0000000000017c94                Store_SetPulseSelect
                0x0000000000017cac                Store_SetPulseSelectStr
                0x0000000000017cec                Store_ReadIoSelect
                0x0000000000017d16                Store_SetIoSelect
                0x0000000000017d2e                Store_SetIoSelectStr
                0x0000000000017d66                Store_ReadPulseRate
                0x0000000000017dac                Store_SetPulseRate
                0x0000000000017ddc                Store_ReadPulseRange
                0x0000000000017e22                Store_SetPulseRange
                0x0000000000017e52                Store_ReadPulseRangeBytes
                0x0000000000017f8e                Store_ReadIoDirConfig
                0x0000000000017fb8                Store_ReadIoDirConfigStr
                0x000000000001800c                Store_SetIoDirConfig
                0x0000000000018024                Store_SetIoDirConfigStr
                0x000000000001805c                Store_ReadIoLevelConfig
                0x0000000000018086                Store_ReadIoLevelConfigStr
                0x00000000000180da                Store_SetIoLevelConfig
                0x00000000000180f2                Store_SetIoLevelConfigStr
                0x000000000001812a                Store_ReadReportTimeMode
                0x0000000000018152                Store_SetReportTimeMode
                0x000000000001817a                Store_ReadSaveTimeMode
                0x00000000000181a2                Store_SetSaveTimeMode
                0x00000000000181cc                Store_SetHydrologyConfigData
                0x000000000001823c                Store_ReadHydrologyConfigData
                0x00000000000182a8                Store_GSM_ReadCenterPhone
                0x00000000000182fc                Store_GSM_SetCenterPhone
                0x0000000000018350                Store_CheckDataItemSended
                0x00000000000183b8                Store_MarkDataItemSended
                0x0000000000018414                Store_ClearWork
                0x0000000000018466                Store_WriteDataItem
                0x0000000000018520                Store_WriteDataItemAuto
                0x000000000001858a                Store_ReadDataItem
                0x0000000000018806                New_Store_ReadDataItem
 .text          0x0000000000018aa8      0x58a uart0.o
                0x0000000000018aa8                UART0_ClearBuffer
                0x0000000000018ae2                UART0_Open
                0x0000000000018b18                UART0_Open_9600
                0x0000000000018b66                Wifi_Uart0_Open
                0x0000000000018ba0                UART0_Close
                0x0000000000018baa                UART0_WaitInput
                0x0000000000018bda                UART0_ClearInput
                0x0000000000018be2                UART0_Send
                0x0000000000018c78                GPRS_RecvLineTry
                0x0000000000018cd0                UART0_RecvLine
                0x0000000000018d42                UART0_RecvLineTry
                0x0000000000018db6                UART0_RecvLineWait
                0x0000000000018e4a                New_UART0_RecvLineWait
                0x0000000000018e7c                UART0_RecvLineLongWait
                0x0000000000018f10                UART0_RX_ISR
 .text          0x0000000000019032      0x472 uart3.o
                0x0000000000019032                UART3_ClearBuffer
                0x0000000000019068                UART3_Open
                0x00000000000190a0                UART3_Open_9600
                0x00000000000190d8                UART3_Close
                0x00000000000190e2                UART3_Send
                0x000000000001917e                UART3_SendtoInt
                0x0000000000019194                UART3_RecvLine
                0x0000000000019206                UART3_RecvLineTry
                0x00000000000192a6                UART3_RecvLineWait
                0x0000000000019332                UART3_RecvLineLongWait
                0x00000000000193be                UART3_RX_ISR
 .text          0x00000000000194a4      0xba4 wifi_config.o
                0x00000000000194a4                getParaMemberandLen
                0x00000000000195c4                WIFI_Write
                0x00000000000195de                WIFI_InitCmd
                0x000000000001971e                WIFI_Server_Start
                0x000000000001976e                WIFI_Close
                0x000000000001977c                WIFI_ClearBuffer
                0x0000000000019782                WIFI_Open
                0x0000000000019802                WIFI_ReceiveConfigDataProcess
                0x0000000000019974                indexOfColon
                0x0000000000019990                WIFI_ParseData
                0x0000000000019a50                WIFI_GetHydrologyConfigData
                0x0000000000019b70                WIFI_RecvLineTry
                0x0000000000019b76                WIFI_WaitSendResult
                0x0000000000019bf2                WIFI_SendData
                0x0000000000019cae                WIFI_GetCIPStatus
                0x0000000000019cbc                WIFI_ReceiveDataProcess
                0x0000000000019daa                WIFI_Console_Hydrology
                0x0000000000019f96                WIFI_HydrologyConfigProcess
 .text.__extendsfdf2
                0x000000000001a048       0x58 /home/howard/app/ti/msp430-gcc/bin/../lib/gcc/msp430-elf/8.3.0/libgcc.a(_sf_to_df.o)
                0x000000000001a048                __mspabi_cvtfd
 .text._fpadd_parts
                0x000000000001a0a0      0x582 /home/howard/app/ti/msp430-gcc/bin/../lib/gcc/msp430-elf/8.3.0/libgcc.a(_addsub_df.o)
 .text.__subdf3
                0x000000000001a622       0x66 /home/howard/app/ti/msp430-gcc/bin/../lib/gcc/msp430-elf/8.3.0/libgcc.a(_addsub_df.o)
                0x000000000001a622                __mspabi_subd
 .text.__muldf3
                0x000000000001a688      0x53c /home/howard/app/ti/msp430-gcc/bin/../lib/gcc/msp430-elf/8.3.0/libgcc.a(_mul_df.o)
                0x000000000001a688                __mspabi_mpyd
 .text.__floatsidf
                0x000000000001abc4       0x8e /home/howard/app/ti/msp430-gcc/bin/../lib/gcc/msp430-elf/8.3.0/libgcc.a(_si_to_df.o)
                0x000000000001abc4                __mspabi_fltlid
 .text.__fixdfsi
                0x000000000001ac52       0x9a /home/howard/app/ti/msp430-gcc/bin/../lib/gcc/msp430-elf/8.3.0/libgcc.a(_df_to_si.o)
                0x000000000001ac52                __mspabi_fixdli
 .text.__make_dp
                0x000000000001acec       0x34 /home/howard/app/ti/msp430-gcc/bin/../lib/gcc/msp430-elf/8.3.0/libgcc.a(_make_df.o)
                0x000000000001acec                __make_dp
 .text.__truncdfsf2
                0x000000000001ad20       0x66 /home/howard/app/ti/msp430-gcc/bin/../lib/gcc/msp430-elf/8.3.0/libgcc.a(_df_to_sf.o)
                0x000000000001ad20                __mspabi_cvtdf
 .text.udivmodhi4
                0x000000000001ad86       0x3c /home/howard/app/ti/msp430-gcc/bin/../lib/gcc/msp430-elf/8.3.0/libgcc.a(lib2divHI.o)
                0x000000000001ad86                udivmodhi4
 .text.__divhi3
                0x000000000001adc2       0x32 /home/howard/app/ti/msp430-gcc/bin/../lib/gcc/msp430-elf/8.3.0/libgcc.a(lib2divHI.o)
                0x000000000001adc2                __mspabi_divi
 .text.__modhi3
                0x000000000001adf4       0x30 /home/howard/app/ti/msp430-gcc/bin/../lib/gcc/msp430-elf/8.3.0/libgcc.a(lib2divHI.o)
                0x000000000001adf4                __mspabi_remi
 .text.__udivhi3
                0x000000000001ae24        0x8 /home/howard/app/ti/msp430-gcc/bin/../lib/gcc/msp430-elf/8.3.0/libgcc.a(lib2divHI.o)
                0x000000000001ae24                __mspabi_divu
 .text.__umodhi3
                0x000000000001ae2c        0x8 /home/howard/app/ti/msp430-gcc/bin/../lib/gcc/msp430-elf/8.3.0/libgcc.a(lib2divHI.o)
                0x000000000001ae2c                __mspabi_remu
 .text.udivmodsi4
                0x000000000001ae34       0x80 /home/howard/app/ti/msp430-gcc/bin/../lib/gcc/msp430-elf/8.3.0/libgcc.a(lib2divSI.o)
                0x000000000001ae34                udivmodsi4
 .text.__divsi3
                0x000000000001aeb4       0x58 /home/howard/app/ti/msp430-gcc/bin/../lib/gcc/msp430-elf/8.3.0/libgcc.a(lib2divSI.o)
                0x000000000001aeb4                __mspabi_divli
 .text.__udivsi3
                0x000000000001af0c        0xe /home/howard/app/ti/msp430-gcc/bin/../lib/gcc/msp430-elf/8.3.0/libgcc.a(lib2divSI.o)
                0x000000000001af0c                __mspabi_divul
                0x000000000001af0c                __mspabi_divlu
 .text.__umodsi3
                0x000000000001af1a        0xe /home/howard/app/ti/msp430-gcc/bin/../lib/gcc/msp430-elf/8.3.0/libgcc.a(lib2divSI.o)
                0x000000000001af1a                __mspabi_remul
 .text.__mspabi_slli
                0x000000000001af28        0xa /home/howard/app/ti/msp430-gcc/bin/../lib/gcc/msp430-elf/8.3.0/libgcc.a(slli.o)
                0x000000000001af2c                __mspabi_slli
 .text.__mspabi_slll_n
                0x000000000001af32       0x3e /home/howard/app/ti/msp430-gcc/bin/../lib/gcc/msp430-elf/8.3.0/libgcc.a(slli.o)
                0x000000000001af32                __mspabi_slll_15
                0x000000000001af36                __mspabi_slll_14
                0x000000000001af3a                __mspabi_slll_13
                0x000000000001af3e                __mspabi_slll_12
                0x000000000001af42                __mspabi_slll_11
                0x000000000001af46                __mspabi_slll_10
                0x000000000001af4a                __mspabi_slll_9
                0x000000000001af4e                __mspabi_slll_8
                0x000000000001af52                __mspabi_slll_7
                0x000000000001af56                __mspabi_slll_6
                0x000000000001af5a                __mspabi_slll_5
                0x000000000001af5e                __mspabi_slll_4
                0x000000000001af62                __mspabi_slll_3
                0x000000000001af66                __mspabi_slll_2
                0x000000000001af6a                __mspabi_slll_1
 .text.__mspabi_slll
                0x000000000001af70        0xc /home/howard/app/ti/msp430-gcc/bin/../lib/gcc/msp430-elf/8.3.0/libgcc.a(slli.o)
                0x000000000001af76                __mspabi_slll
 .text.__mspabi_sllll
                0x000000000001af7c       0x1e /home/howard/app/ti/msp430-gcc/bin/../lib/gcc/msp430-elf/8.3.0/libgcc.a(slli.o)
                0x000000000001af7c                __mspabi_sllll
 .text.__mspabi_srai
                0x000000000001af9a        0xa /home/howard/app/ti/msp430-gcc/bin/../lib/gcc/msp430-elf/8.3.0/libgcc.a(srai.o)
                0x000000000001af9e                __mspabi_srai
 .text.__mspabi_sral_n
                0x000000000001afa4       0x3e /home/howard/app/ti/msp430-gcc/bin/../lib/gcc/msp430-elf/8.3.0/libgcc.a(srai.o)
                0x000000000001afa4                __mspabi_sral_15
                0x000000000001afa8                __mspabi_sral_14
                0x000000000001afac                __mspabi_sral_13
                0x000000000001afb0                __mspabi_sral_12
                0x000000000001afb4                __mspabi_sral_11
                0x000000000001afb8                __mspabi_sral_10
                0x000000000001afbc                __mspabi_sral_9
                0x000000000001afc0                __mspabi_sral_8
                0x000000000001afc4                __mspabi_sral_7
                0x000000000001afc8                __mspabi_sral_6
                0x000000000001afcc                __mspabi_sral_5
                0x000000000001afd0                __mspabi_sral_4
                0x000000000001afd4                __mspabi_sral_3
                0x000000000001afd8                __mspabi_sral_2
                0x000000000001afdc                __mspabi_sral_1
 .text.__mspabi_sral
                0x000000000001afe2        0xc /home/howard/app/ti/msp430-gcc/bin/../lib/gcc/msp430-elf/8.3.0/libgcc.a(srai.o)
                0x000000000001afe8                __mspabi_sral
 .text.__mspabi_srall
                0x000000000001afee       0x1e /home/howard/app/ti/msp430-gcc/bin/../lib/gcc/msp430-elf/8.3.0/libgcc.a(srai.o)
                0x000000000001afee                __mspabi_srall
 .text.__mspabi_srli_n
                0x000000000001b00c       0x3e /home/howard/app/ti/msp430-gcc/bin/../lib/gcc/msp430-elf/8.3.0/libgcc.a(srli.o)
                0x000000000001b00c                __mspabi_srli_15
                0x000000000001b010                __mspabi_srli_14
                0x000000000001b014                __mspabi_srli_13
                0x000000000001b018                __mspabi_srli_12
                0x000000000001b01c                __mspabi_srli_11
                0x000000000001b020                __mspabi_srli_10
                0x000000000001b024                __mspabi_srli_9
                0x000000000001b028                __mspabi_srli_8
                0x000000000001b02c                __mspabi_srli_7
                0x000000000001b030                __mspabi_srli_6
                0x000000000001b034                __mspabi_srli_5
                0x000000000001b038                __mspabi_srli_4
                0x000000000001b03c                __mspabi_srli_3
                0x000000000001b040                __mspabi_srli_2
                0x000000000001b044                __mspabi_srli_1
 .text.__mspabi_srll_n
                0x000000000001b04a       0x5c /home/howard/app/ti/msp430-gcc/bin/../lib/gcc/msp430-elf/8.3.0/libgcc.a(srli.o)
                0x000000000001b04a                __mspabi_srll_15
                0x000000000001b050                __mspabi_srll_14
                0x000000000001b056                __mspabi_srll_13
                0x000000000001b05c                __mspabi_srll_12
                0x000000000001b062                __mspabi_srll_11
                0x000000000001b068                __mspabi_srll_10
                0x000000000001b06e                __mspabi_srll_9
                0x000000000001b074                __mspabi_srll_8
                0x000000000001b07a                __mspabi_srll_7
                0x000000000001b080                __mspabi_srll_6
                0x000000000001b086                __mspabi_srll_5
                0x000000000001b08c                __mspabi_srll_4
                0x000000000001b092                __mspabi_srll_3
                0x000000000001b098                __mspabi_srll_2
                0x000000000001b09e                __mspabi_srll_1
 .text.__mspabi_srll
                0x000000000001b0a6        0xe /home/howard/app/ti/msp430-gcc/bin/../lib/gcc/msp430-elf/8.3.0/libgcc.a(srli.o)
                0x000000000001b0ae                __mspabi_srll
 .text.__mspabi_srlll
                0x000000000001b0b4       0x20 /home/howard/app/ti/msp430-gcc/bin/../lib/gcc/msp430-elf/8.3.0/libgcc.a(srli.o)
                0x000000000001b0b4                __mspabi_srlll
 .text.__clzsi2
                0x000000000001b0d4       0x42 /home/howard/app/ti/msp430-gcc/bin/../lib/gcc/msp430-elf/8.3.0/libgcc.a(_clzsi2.o)
                0x000000000001b0d4                __clzsi2
 .text.__pack_f
                0x000000000001b116      0x13e /home/howard/app/ti/msp430-gcc/bin/../lib/gcc/msp430-elf/8.3.0/libgcc.a(_pack_sf.o)
                0x000000000001b116                __pack_f
 .text.__unpack_f
                0x000000000001b254       0xd6 /home/howard/app/ti/msp430-gcc/bin/../lib/gcc/msp430-elf/8.3.0/libgcc.a(_unpack_sf.o)
                0x000000000001b254                __unpack_f
 .text.__make_fp
                0x000000000001b32a       0x3a /home/howard/app/ti/msp430-gcc/bin/../lib/gcc/msp430-elf/8.3.0/libgcc.a(_make_sf.o)
                0x000000000001b32a                __make_fp
 .text.__pack_d
                0x000000000001b364      0x2ae /home/howard/app/ti/msp430-gcc/bin/../lib/gcc/msp430-elf/8.3.0/libgcc.a(_pack_df.o)
                0x000000000001b364                __pack_d
 .text.__unpack_d
                0x000000000001b612      0x136 /home/howard/app/ti/msp430-gcc/bin/../lib/gcc/msp430-elf/8.3.0/libgcc.a(_unpack_df.o)
                0x000000000001b612                __unpack_d
 .text.__mulhi2_f5
                0x000000000001b748       0x14 /home/howard/app/ti/msp430-gcc/bin/../lib/gcc/msp430-elf/8.3.0/libmul_f5.a(lib2hw_mul_f5.o)
                0x000000000001b748                __mulhi2_f5
                0x000000000001b748                __mspabi_mpyi_f5hw
                0x000000000001b748                __mspabi_mpyi
 .text.__mulsi2_f5
                0x000000000001b75c       0x20 /home/howard/app/ti/msp430-gcc/bin/../lib/gcc/msp430-elf/8.3.0/libmul_f5.a(lib2hw_mul_f5.o)
                0x000000000001b75c                __mspabi_mpyl
                0x000000000001b75c                __mspabi_mpyl_f5hw
                0x000000000001b75c                __mulsi2_f5
 .text.abort    0x000000000001b77c        0xe /home/howard/app/ti/msp430-gcc/bin/../lib/gcc/msp430-elf/8.3.0/../../../../msp430-elf/lib/libc.a(lib_a-abort.o)
                0x000000000001b77c                abort
 .text.atoi     0x000000000001b78a        0xc /home/howard/app/ti/msp430-gcc/bin/../lib/gcc/msp430-elf/8.3.0/../../../../msp430-elf/lib/libc.a(lib_a-atoi.o)
                0x000000000001b78a                atoi
 .text.malloc   0x000000000001b796        0xc /home/howard/app/ti/msp430-gcc/bin/../lib/gcc/msp430-elf/8.3.0/../../../../msp430-elf/lib/libc.a(lib_a-malloc.o)
                0x000000000001b796                malloc
 .text.free     0x000000000001b7a2        0xc /home/howard/app/ti/msp430-gcc/bin/../lib/gcc/msp430-elf/8.3.0/../../../../msp430-elf/lib/libc.a(lib_a-malloc.o)
                0x000000000001b7a2                free
 .text.memcpy   0x000000000001b7ae       0x1c /home/howard/app/ti/msp430-gcc/bin/../lib/gcc/msp430-elf/8.3.0/../../../../msp430-elf/lib/libc.a(lib_a-memcpy.o)
                0x000000000001b7ae                memcpy
 .text.memset   0x000000000001b7ca       0x14 /home/howard/app/ti/msp430-gcc/bin/../lib/gcc/msp430-elf/8.3.0/../../../../msp430-elf/lib/libc.a(lib_a-memset.o)
                0x000000000001b7ca                memset
 .text._free_r  0x000000000001b7de       0xe6 /home/howard/app/ti/msp430-gcc/bin/../lib/gcc/msp430-elf/8.3.0/../../../../msp430-elf/lib/libc.a(lib_a-nano-freer.o)
                0x000000000001b7de                _free_r
 .text._malloc_r
                0x000000000001b8c4       0xec /home/howard/app/ti/msp430-gcc/bin/../lib/gcc/msp430-elf/8.3.0/../../../../msp430-elf/lib/libc.a(lib_a-nano-mallocr.o)
                0x000000000001b8c4                _malloc_r
 .text.printf   0x000000000001b9b0       0x2e /home/howard/app/ti/msp430-gcc/bin/../lib/gcc/msp430-elf/8.3.0/../../../../msp430-elf/lib/libc.a(lib_a-printf.o)
                0x000000000001b9b0                printf
                0x000000000001b9b0                iprintf
 .text.putchar  0x000000000001b9de       0x28 /home/howard/app/ti/msp430-gcc/bin/../lib/gcc/msp430-elf/8.3.0/../../../../msp430-elf/lib/libc.a(lib_a-putchar.o)
                0x000000000001b9de                putchar
 .text._putc_r  0x000000000001ba06       0x80 /home/howard/app/ti/msp430-gcc/bin/../lib/gcc/msp430-elf/8.3.0/../../../../msp430-elf/lib/libc.a(lib_a-putc.o)
                0x000000000001ba06                _putc_r
 .text._puts_r  0x000000000001ba86       0xb8 /home/howard/app/ti/msp430-gcc/bin/../lib/gcc/msp430-elf/8.3.0/../../../../msp430-elf/lib/libc.a(lib_a-puts.o)
                0x000000000001ba86                _puts_r
 .text.puts     0x000000000001bb3e        0xc /home/howard/app/ti/msp430-gcc/bin/../lib/gcc/msp430-elf/8.3.0/../../../../msp430-elf/lib/libc.a(lib_a-puts.o)
                0x000000000001bb3e                puts
 .text._sbrk_r  0x000000000001bb4a       0x22 /home/howard/app/ti/msp430-gcc/bin/../lib/gcc/msp430-elf/8.3.0/../../../../msp430-elf/lib/libc.a(lib_a-sbrkr.o)
                0x000000000001bb4a                _sbrk_r
 .text._raise_r
                0x000000000001bb6c       0x5c /home/howard/app/ti/msp430-gcc/bin/../lib/gcc/msp430-elf/8.3.0/../../../../msp430-elf/lib/libc.a(lib_a-signal.o)
                0x000000000001bb6c                _raise_r
 .text.raise    0x000000000001bbc8        0xc /home/howard/app/ti/msp430-gcc/bin/../lib/gcc/msp430-elf/8.3.0/../../../../msp430-elf/lib/libc.a(lib_a-signal.o)
                0x000000000001bbc8                raise
 .text._kill_r  0x000000000001bbd4       0x24 /home/howard/app/ti/msp430-gcc/bin/../lib/gcc/msp430-elf/8.3.0/../../../../msp430-elf/lib/libc.a(lib_a-signalr.o)
                0x000000000001bbd4                _kill_r
 .text._getpid_r
                0x000000000001bbf8        0x6 /home/howard/app/ti/msp430-gcc/bin/../lib/gcc/msp430-elf/8.3.0/../../../../msp430-elf/lib/libc.a(lib_a-signalr.o)
                0x000000000001bbf8                _getpid_r
 .text.sprintf  0x000000000001bbfe       0x42 /home/howard/app/ti/msp430-gcc/bin/../lib/gcc/msp430-elf/8.3.0/../../../../msp430-elf/lib/libc.a(lib_a-sprintf.o)
                0x000000000001bbfe                sprintf
                0x000000000001bbfe                siprintf
 .text.strchr   0x000000000001bc40       0x1c /home/howard/app/ti/msp430-gcc/bin/../lib/gcc/msp430-elf/8.3.0/../../../../msp430-elf/lib/libc.a(lib_a-strchr.o)
                0x000000000001bc40                strchr
 .text.strlen   0x000000000001bc5c       0x12 /home/howard/app/ti/msp430-gcc/bin/../lib/gcc/msp430-elf/8.3.0/../../../../msp430-elf/lib/libc.a(lib_a-strlen.o)
                0x000000000001bc5c                strlen
 .text.strstr   0x000000000001bc6e       0x3c /home/howard/app/ti/msp430-gcc/bin/../lib/gcc/msp430-elf/8.3.0/../../../../msp430-elf/lib/libc.a(lib_a-strstr.o)
                0x000000000001bc6e                strstr
 .text.strtok   0x000000000001bcaa       0x80 /home/howard/app/ti/msp430-gcc/bin/../lib/gcc/msp430-elf/8.3.0/../../../../msp430-elf/lib/libc.a(lib_a-strtok.o)
                0x000000000001bcaa                strtok
 .text.__strtok_r
                0x000000000001bd2a       0x68 /home/howard/app/ti/msp430-gcc/bin/../lib/gcc/msp430-elf/8.3.0/../../../../msp430-elf/lib/libc.a(lib_a-strtok_r.o)
                0x000000000001bd2a                __strtok_r
 .text._strtol_r
                0x000000000001bd92      0x1c2 /home/howard/app/ti/msp430-gcc/bin/../lib/gcc/msp430-elf/8.3.0/../../../../msp430-elf/lib/libc.a(lib_a-strtol.o)
                0x000000000001bd92                _strtol_r
 .text.strtol   0x000000000001bf54       0x10 /home/howard/app/ti/msp430-gcc/bin/../lib/gcc/msp430-elf/8.3.0/../../../../msp430-elf/lib/libc.a(lib_a-strtol.o)
                0x000000000001bf54                strtol
 .text.__swbuf_r
                0x000000000001bf64       0xca /home/howard/app/ti/msp430-gcc/bin/../lib/gcc/msp430-elf/8.3.0/../../../../msp430-elf/lib/libc.a(lib_a-wbuf.o)
                0x000000000001bf64                __swbuf_r
 .text.__swsetup_r
                0x000000000001c02e       0xf4 /home/howard/app/ti/msp430-gcc/bin/../lib/gcc/msp430-elf/8.3.0/../../../../msp430-elf/lib/libc.a(lib_a-wsetup.o)
                0x000000000001c02e                __swsetup_r
 .text.__sflush_r
                0x000000000001c122      0x184 /home/howard/app/ti/msp430-gcc/bin/../lib/gcc/msp430-elf/8.3.0/../../../../msp430-elf/lib/libc.a(lib_a-fflush.o)
                0x000000000001c122                __sflush_r
 .text._fflush_r
                0x000000000001c2a6       0x58 /home/howard/app/ti/msp430-gcc/bin/../lib/gcc/msp430-elf/8.3.0/../../../../msp430-elf/lib/libc.a(lib_a-fflush.o)
                0x000000000001c2a6                _fflush_r
 .text._cleanup_r
                0x000000000001c2fe        0xa /home/howard/app/ti/msp430-gcc/bin/../lib/gcc/msp430-elf/8.3.0/../../../../msp430-elf/lib/libc.a(lib_a-findfp.o)
                0x000000000001c2fe                _cleanup_r
 .text.std.isra.0
                0x000000000001c308       0x56 /home/howard/app/ti/msp430-gcc/bin/../lib/gcc/msp430-elf/8.3.0/../../../../msp430-elf/lib/libc.a(lib_a-findfp.o)
 .text.__sfmoreglue
                0x000000000001c35e       0x44 /home/howard/app/ti/msp430-gcc/bin/../lib/gcc/msp430-elf/8.3.0/../../../../msp430-elf/lib/libc.a(lib_a-findfp.o)
                0x000000000001c35e                __sfmoreglue
 .text.__sinit  0x000000000001c3a2       0x70 /home/howard/app/ti/msp430-gcc/bin/../lib/gcc/msp430-elf/8.3.0/../../../../msp430-elf/lib/libc.a(lib_a-findfp.o)
                0x000000000001c3a2                __sinit
 .text.__sfp    0x000000000001c412       0xac /home/howard/app/ti/msp430-gcc/bin/../lib/gcc/msp430-elf/8.3.0/../../../../msp430-elf/lib/libc.a(lib_a-findfp.o)
                0x000000000001c412                __sfp
 .text.__sfp_lock_acquire
                0x000000000001c4be        0x2 /home/howard/app/ti/msp430-gcc/bin/../lib/gcc/msp430-elf/8.3.0/../../../../msp430-elf/lib/libc.a(lib_a-findfp.o)
                0x000000000001c4be                __sfp_lock_acquire
 .text.__sfp_lock_release
                0x000000000001c4c0        0x2 /home/howard/app/ti/msp430-gcc/bin/../lib/gcc/msp430-elf/8.3.0/../../../../msp430-elf/lib/libc.a(lib_a-findfp.o)
                0x000000000001c4c0                __sfp_lock_release
 .text.__sfvwrite_r
                0x000000000001c4c2      0x2f8 /home/howard/app/ti/msp430-gcc/bin/../lib/gcc/msp430-elf/8.3.0/../../../../msp430-elf/lib/libc.a(lib_a-fvwrite.o)
                0x000000000001c4c2                __sfvwrite_r
 .text._fwalk_reent
                0x000000000001c7ba       0x4c /home/howard/app/ti/msp430-gcc/bin/../lib/gcc/msp430-elf/8.3.0/../../../../msp430-elf/lib/libc.a(lib_a-fwalk.o)
                0x000000000001c7ba                _fwalk_reent
 .text.__locale_charset
                0x000000000001c806        0x6 /home/howard/app/ti/msp430-gcc/bin/../lib/gcc/msp430-elf/8.3.0/../../../../msp430-elf/lib/libc.a(lib_a-locale.o)
                0x000000000001c806                __locale_charset
 .text.__locale_mb_cur_max
                0x000000000001c80c        0x6 /home/howard/app/ti/msp430-gcc/bin/../lib/gcc/msp430-elf/8.3.0/../../../../msp430-elf/lib/libc.a(lib_a-locale.o)
                0x000000000001c80c                __locale_mb_cur_max
 .text.__swhatbuf_r
                0x000000000001c812       0x68 /home/howard/app/ti/msp430-gcc/bin/../lib/gcc/msp430-elf/8.3.0/../../../../msp430-elf/lib/libc.a(lib_a-makebuf.o)
                0x000000000001c812                __swhatbuf_r
 .text.__smakebuf_r
                0x000000000001c87a       0x86 /home/howard/app/ti/msp430-gcc/bin/../lib/gcc/msp430-elf/8.3.0/../../../../msp430-elf/lib/libc.a(lib_a-makebuf.o)
                0x000000000001c87a                __smakebuf_r
 .text.memchr   0x000000000001c900       0x18 /home/howard/app/ti/msp430-gcc/bin/../lib/gcc/msp430-elf/8.3.0/../../../../msp430-elf/lib/libc.a(lib_a-memchr.o)
                0x000000000001c900                memchr
 .text.memmove  0x000000000001c918       0x46 /home/howard/app/ti/msp430-gcc/bin/../lib/gcc/msp430-elf/8.3.0/../../../../msp430-elf/lib/libc.a(lib_a-memmove.o)
                0x000000000001c918                memmove
 .text._realloc_r
                0x000000000001c95e       0x52 /home/howard/app/ti/msp430-gcc/bin/../lib/gcc/msp430-elf/8.3.0/../../../../msp430-elf/lib/libc.a(lib_a-nano-reallocr.o)
                0x000000000001c95e                _realloc_r
 .text.__ssputs_r
                0x000000000001c9b0       0xd2 /home/howard/app/ti/msp430-gcc/bin/../lib/gcc/msp430-elf/8.3.0/../../../../msp430-elf/lib/libc.a(lib_a-nano-svfprintf.o)
                0x000000000001c9b0                __ssputs_r
 .text._svfprintf_r
                0x000000000001ca82      0x27c /home/howard/app/ti/msp430-gcc/bin/../lib/gcc/msp430-elf/8.3.0/../../../../msp430-elf/lib/libc.a(lib_a-nano-svfprintf.o)
                0x000000000001ca82                _svfprintf_r
                0x000000000001ca82                _svfiprintf_r
 .text._printf_common
                0x000000000001ccfe       0xfe /home/howard/app/ti/msp430-gcc/bin/../lib/gcc/msp430-elf/8.3.0/../../../../msp430-elf/lib/libc.a(lib_a-nano-vfprintf_i.o)
                0x000000000001ccfe                _printf_common
 .text._printf_i
                0x000000000001cdfc      0x320 /home/howard/app/ti/msp430-gcc/bin/../lib/gcc/msp430-elf/8.3.0/../../../../msp430-elf/lib/libc.a(lib_a-nano-vfprintf_i.o)
                0x000000000001cdfc                _printf_i
 .text.__sfputc_r
                0x000000000001d11c       0x34 /home/howard/app/ti/msp430-gcc/bin/../lib/gcc/msp430-elf/8.3.0/../../../../msp430-elf/lib/libc.a(lib_a-nano-vfprintf.o)
 .text.__sfputs_r
                0x000000000001d150       0x58 /home/howard/app/ti/msp430-gcc/bin/../lib/gcc/msp430-elf/8.3.0/../../../../msp430-elf/lib/libc.a(lib_a-nano-vfprintf.o)
                0x000000000001d150                __sfputs_r
 .text._vfprintf_r
                0x000000000001d1a8      0x292 /home/howard/app/ti/msp430-gcc/bin/../lib/gcc/msp430-elf/8.3.0/../../../../msp430-elf/lib/libc.a(lib_a-nano-vfprintf.o)
                0x000000000001d1a8                _vfiprintf_r
                0x000000000001d1a8                _vfprintf_r
 .text.__sread  0x000000000001d43a       0x38 /home/howard/app/ti/msp430-gcc/bin/../lib/gcc/msp430-elf/8.3.0/../../../../msp430-elf/lib/libc.a(lib_a-stdio.o)
                0x000000000001d43a                __sread
 .text.__swrite
                0x000000000001d472       0x3c /home/howard/app/ti/msp430-gcc/bin/../lib/gcc/msp430-elf/8.3.0/../../../../msp430-elf/lib/libc.a(lib_a-stdio.o)
                0x000000000001d472                __swrite
 .text.__sseek  0x000000000001d4ae       0x38 /home/howard/app/ti/msp430-gcc/bin/../lib/gcc/msp430-elf/8.3.0/../../../../msp430-elf/lib/libc.a(lib_a-stdio.o)
                0x000000000001d4ae                __sseek
 .text.__sclose
                0x000000000001d4e6        0xa /home/howard/app/ti/msp430-gcc/bin/../lib/gcc/msp430-elf/8.3.0/../../../../msp430-elf/lib/libc.a(lib_a-stdio.o)
                0x000000000001d4e6                __sclose
 .text._write_r
                0x000000000001d4f0       0x26 /home/howard/app/ti/msp430-gcc/bin/../lib/gcc/msp430-elf/8.3.0/../../../../msp430-elf/lib/libc.a(lib_a-writer.o)
                0x000000000001d4f0                _write_r
 .text._close_r
                0x000000000001d516       0x22 /home/howard/app/ti/msp430-gcc/bin/../lib/gcc/msp430-elf/8.3.0/../../../../msp430-elf/lib/libc.a(lib_a-closer.o)
                0x000000000001d516                _close_r
 .text._fclose_r
                0x000000000001d538       0xba /home/howard/app/ti/msp430-gcc/bin/../lib/gcc/msp430-elf/8.3.0/../../../../msp430-elf/lib/libc.a(lib_a-fclose.o)
                0x000000000001d538                _fclose_r
 .text.__fputwc
                0x000000000001d5f2       0xae /home/howard/app/ti/msp430-gcc/bin/../lib/gcc/msp430-elf/8.3.0/../../../../msp430-elf/lib/libc.a(lib_a-fputwc.o)
                0x000000000001d5f2                __fputwc
 .text._fputwc_r
                0x000000000001d6a0       0x2a /home/howard/app/ti/msp430-gcc/bin/../lib/gcc/msp430-elf/8.3.0/../../../../msp430-elf/lib/libc.a(lib_a-fputwc.o)
                0x000000000001d6a0                _fputwc_r
 .text._fstat_r
                0x000000000001d6ca       0x24 /home/howard/app/ti/msp430-gcc/bin/../lib/gcc/msp430-elf/8.3.0/../../../../msp430-elf/lib/libc.a(lib_a-fstatr.o)
                0x000000000001d6ca                _fstat_r
 .text._isatty_r
                0x000000000001d6ee       0x22 /home/howard/app/ti/msp430-gcc/bin/../lib/gcc/msp430-elf/8.3.0/../../../../msp430-elf/lib/libc.a(lib_a-isattyr.o)
                0x000000000001d6ee                _isatty_r
 .text._lseek_r
                0x000000000001d710       0x2e /home/howard/app/ti/msp430-gcc/bin/../lib/gcc/msp430-elf/8.3.0/../../../../msp430-elf/lib/libc.a(lib_a-lseekr.o)
                0x000000000001d710                _lseek_r
 .text._malloc_usable_size_r
                0x000000000001d73e       0x14 /home/howard/app/ti/msp430-gcc/bin/../lib/gcc/msp430-elf/8.3.0/../../../../msp430-elf/lib/libc.a(lib_a-nano-msizer.o)
                0x000000000001d73e                _malloc_usable_size_r
 .text._read_r  0x000000000001d752       0x26 /home/howard/app/ti/msp430-gcc/bin/../lib/gcc/msp430-elf/8.3.0/../../../../msp430-elf/lib/libc.a(lib_a-readr.o)
                0x000000000001d752                _read_r
 .text._wcrtomb_r
                0x000000000001d778       0x6a /home/howard/app/ti/msp430-gcc/bin/../lib/gcc/msp430-elf/8.3.0/../../../../msp430-elf/lib/libc.a(lib_a-wcrtomb.o)
                0x000000000001d778                _wcrtomb_r
 .text.__ascii_wctomb
                0x000000000001d7e2       0x22 /home/howard/app/ti/msp430-gcc/bin/../lib/gcc/msp430-elf/8.3.0/../../../../msp430-elf/lib/libc.a(lib_a-wctomb_r.o)
                0x000000000001d7e2                __ascii_wctomb
 .text.exit     0x000000000001d804        0x2 /home/howard/app/ti/msp430-gcc/bin/../lib/gcc/msp430-elf/8.3.0/../../../../msp430-elf/lib/libnosys.a(ciosyscalls.o)
                0x000000000001d804                exit
                0x000000000001d804                _exit
 .text.isatty   0x000000000001d806        0x4 /home/howard/app/ti/msp430-gcc/bin/../lib/gcc/msp430-elf/8.3.0/../../../../msp430-elf/lib/libnosys.a(ciosyscalls.o)
                0x000000000001d806                isatty
                0x000000000001d806                _isatty
 .text.getpid   0x000000000001d80a        0x6 /home/howard/app/ti/msp430-gcc/bin/../lib/gcc/msp430-elf/8.3.0/../../../../msp430-elf/lib/libnosys.a(ciosyscalls.o)
                0x000000000001d80a                getpid
 .text.close    0x000000000001d810        0xe /home/howard/app/ti/msp430-gcc/bin/../lib/gcc/msp430-elf/8.3.0/../../../../msp430-elf/lib/libnosys.a(ciosyscalls.o)
                0x000000000001d810                close
 .text.read     0x000000000001d81e        0xe /home/howard/app/ti/msp430-gcc/bin/../lib/gcc/msp430-elf/8.3.0/../../../../msp430-elf/lib/libnosys.a(ciosyscalls.o)
                0x000000000001d81e                read
 .text.fstat    0x000000000001d82c        0xe /home/howard/app/ti/msp430-gcc/bin/../lib/gcc/msp430-elf/8.3.0/../../../../msp430-elf/lib/libnosys.a(ciosyscalls.o)
                0x000000000001d82c                fstat
 .text.lseek    0x000000000001d83a        0xe /home/howard/app/ti/msp430-gcc/bin/../lib/gcc/msp430-elf/8.3.0/../../../../msp430-elf/lib/libnosys.a(ciosyscalls.o)
                0x000000000001d83a                lseek
 .text.kill     0x000000000001d848        0xe /home/howard/app/ti/msp430-gcc/bin/../lib/gcc/msp430-elf/8.3.0/../../../../msp430-elf/lib/libnosys.a(ciosyscalls.o)
                0x000000000001d848                kill
 .text.write    0x000000000001d856       0x6e /home/howard/app/ti/msp430-gcc/bin/../lib/gcc/msp430-elf/8.3.0/../../../../msp430-elf/lib/libnosys.a(write.o)
                0x000000000001d856                write
 .text._sbrk    0x000000000001d8c4       0x32 /home/howard/app/ti/msp430-gcc/bin/../lib/gcc/msp430-elf/8.3.0/../../../../msp430-elf/lib/libnosys.a(sbrk.o)
                0x000000000001d8c4                _sbrk
                0x000000000001d8c4                sbrk
 .text          0x000000000001d8f6        0x4 /home/howard/app/ti/msp430-gcc/bin/../lib/gcc/msp430-elf/8.3.0/../../../../msp430-elf/lib/libnosys.a(cio.o)
                0x000000000001d8f6                C$$IO$$
                0x000000000001d8f6                _libgloss_cio_hook
 .text.__errno  0x000000000001d8fa        0x6 /home/howard/app/ti/msp430-gcc/bin/../lib/gcc/msp430-elf/8.3.0/../../../../msp430-elf/lib/libc.a(lib_a-errno.o)
                0x000000000001d8fa                __errno
 *(.text.*personality*)
 *(.gnu.warning)
 *(.interp .hash .dynsym .dynstr .gnu.version*)
                [!provide]                        PROVIDE (__etext, .)
                [!provide]                        PROVIDE (_etext, .)
                [!provide]                        PROVIDE (etext, .)
                0x000000000001d900                . = ALIGN (0x2)
 *(.init)
 *(.fini)
 *(.tm_clone_table)

.upper.text     0x0000000000010000        0x0
                0x0000000000010000                . = ALIGN (0x2)
 *(.upper.text.* .upper.text)

.infoA

.infoB

.infoC

.infoD

.upper          0x0000000000010000        0x0
 *(.upper.bss.* .upper.bss)
 *(.upper.data.* .upper.data)
                0x0000000000000001                ASSERT ((SIZEOF (.upper) == 0x0), This MCU does not support placing read/write data into high memory)

.MSP430.attributes
                0x0000000000000000       0x17
 *(.MSP430.attributes)
 .MSP430.attributes
                0x0000000000000000       0x17 /home/howard/app/ti/msp430-gcc/bin/../lib/gcc/msp430-elf/8.3.0/../../../../msp430-elf/lib/crt0.o
 .MSP430.attributes
                0x0000000000000017       0x17 /home/howard/app/ti/msp430-gcc/bin/../lib/gcc/msp430-elf/8.3.0/crtbegin_no_eh.o
 .MSP430.attributes
                0x000000000000002e       0x17 main.o
 .MSP430.attributes
                0x0000000000000045       0x17 adc.o
 .MSP430.attributes
                0x000000000000005c       0x17 common.o
 .MSP430.attributes
                0x0000000000000073       0x17 debug.o
 .MSP430.attributes
                0x000000000000008a       0x17 flash.o
 .MSP430.attributes
                0x00000000000000a1       0x17 GTM900C.o
 .MSP430.attributes
                0x00000000000000b8       0x17 hydrologytask.o
 .MSP430.attributes
                0x00000000000000cf       0x17 packet.o
 .MSP430.attributes
                0x00000000000000e6       0x17 rom.o
 .MSP430.attributes
                0x00000000000000fd       0x17 Sampler.o
 .MSP430.attributes
                0x0000000000000114       0x17 timer.o
 .MSP430.attributes
                0x000000000000012b       0x17 uart1.o
 .MSP430.attributes
                0x0000000000000142       0x17 uart_config.o
 .MSP430.attributes
                0x0000000000000159       0x17 blueTooth.o
 .MSP430.attributes
                0x0000000000000170       0x17 Console.o
 .MSP430.attributes
                0x0000000000000187       0x17 dtu.o
 .MSP430.attributes
                0x000000000000019e       0x17 GSM.o
 .MSP430.attributes
                0x00000000000001b5       0x17 hydrologycommand.o
 .MSP430.attributes
                0x00000000000001cc       0x17 led.o
 .MSP430.attributes
                0x00000000000001e3       0x17 message.o
 .MSP430.attributes
                0x00000000000001fa       0x17 reportbinding.o
 .MSP430.attributes
                0x0000000000000211       0x17 rtc.o
 .MSP430.attributes
                0x0000000000000228       0x17 store.o
 .MSP430.attributes
                0x000000000000023f       0x17 uart0.o
 .MSP430.attributes
                0x0000000000000256       0x17 uart3.o
 .MSP430.attributes
                0x000000000000026d       0x17 wifi_config.o
 .MSP430.attributes
                0x0000000000000284       0x17 /home/howard/app/ti/msp430-gcc/bin/../lib/gcc/msp430-elf/8.3.0/libgcc.a(_addsub_sf.o)
 .MSP430.attributes
                0x000000000000029b       0x17 /home/howard/app/ti/msp430-gcc/bin/../lib/gcc/msp430-elf/8.3.0/libgcc.a(_mul_sf.o)
 .MSP430.attributes
                0x00000000000002b2       0x17 /home/howard/app/ti/msp430-gcc/bin/../lib/gcc/msp430-elf/8.3.0/libgcc.a(_div_sf.o)
 .MSP430.attributes
                0x00000000000002c9       0x17 /home/howard/app/ti/msp430-gcc/bin/../lib/gcc/msp430-elf/8.3.0/libgcc.a(_gt_sf.o)
 .MSP430.attributes
                0x00000000000002e0       0x17 /home/howard/app/ti/msp430-gcc/bin/../lib/gcc/msp430-elf/8.3.0/libgcc.a(_lt_sf.o)
 .MSP430.attributes
                0x00000000000002f7       0x17 /home/howard/app/ti/msp430-gcc/bin/../lib/gcc/msp430-elf/8.3.0/libgcc.a(_si_to_sf.o)
 .MSP430.attributes
                0x000000000000030e       0x17 /home/howard/app/ti/msp430-gcc/bin/../lib/gcc/msp430-elf/8.3.0/libgcc.a(_sf_to_si.o)
 .MSP430.attributes
                0x0000000000000325       0x17 /home/howard/app/ti/msp430-gcc/bin/../lib/gcc/msp430-elf/8.3.0/libgcc.a(_sf_to_df.o)
 .MSP430.attributes
                0x000000000000033c       0x17 /home/howard/app/ti/msp430-gcc/bin/../lib/gcc/msp430-elf/8.3.0/libgcc.a(_thenan_sf.o)
 .MSP430.attributes
                0x0000000000000353       0x17 /home/howard/app/ti/msp430-gcc/bin/../lib/gcc/msp430-elf/8.3.0/libgcc.a(_addsub_df.o)
 .MSP430.attributes
                0x000000000000036a       0x17 /home/howard/app/ti/msp430-gcc/bin/../lib/gcc/msp430-elf/8.3.0/libgcc.a(_mul_df.o)
 .MSP430.attributes
                0x0000000000000381       0x17 /home/howard/app/ti/msp430-gcc/bin/../lib/gcc/msp430-elf/8.3.0/libgcc.a(_div_df.o)
 .MSP430.attributes
                0x0000000000000398       0x17 /home/howard/app/ti/msp430-gcc/bin/../lib/gcc/msp430-elf/8.3.0/libgcc.a(_lt_df.o)
 .MSP430.attributes
                0x00000000000003af       0x17 /home/howard/app/ti/msp430-gcc/bin/../lib/gcc/msp430-elf/8.3.0/libgcc.a(_si_to_df.o)
 .MSP430.attributes
                0x00000000000003c6       0x17 /home/howard/app/ti/msp430-gcc/bin/../lib/gcc/msp430-elf/8.3.0/libgcc.a(_df_to_si.o)
 .MSP430.attributes
                0x00000000000003dd       0x17 /home/howard/app/ti/msp430-gcc/bin/../lib/gcc/msp430-elf/8.3.0/libgcc.a(_make_df.o)
 .MSP430.attributes
                0x00000000000003f4       0x17 /home/howard/app/ti/msp430-gcc/bin/../lib/gcc/msp430-elf/8.3.0/libgcc.a(_df_to_sf.o)
 .MSP430.attributes
                0x000000000000040b       0x17 /home/howard/app/ti/msp430-gcc/bin/../lib/gcc/msp430-elf/8.3.0/libgcc.a(_thenan_df.o)
 .MSP430.attributes
                0x0000000000000422       0x17 /home/howard/app/ti/msp430-gcc/bin/../lib/gcc/msp430-elf/8.3.0/libgcc.a(lib2divHI.o)
 .MSP430.attributes
                0x0000000000000439       0x17 /home/howard/app/ti/msp430-gcc/bin/../lib/gcc/msp430-elf/8.3.0/libgcc.a(lib2divSI.o)
 .MSP430.attributes
                0x0000000000000450       0x17 /home/howard/app/ti/msp430-gcc/bin/../lib/gcc/msp430-elf/8.3.0/libgcc.a(slli.o)
 .MSP430.attributes
                0x0000000000000467       0x17 /home/howard/app/ti/msp430-gcc/bin/../lib/gcc/msp430-elf/8.3.0/libgcc.a(srai.o)
 .MSP430.attributes
                0x000000000000047e       0x17 /home/howard/app/ti/msp430-gcc/bin/../lib/gcc/msp430-elf/8.3.0/libgcc.a(srli.o)
 .MSP430.attributes
                0x0000000000000495       0x17 /home/howard/app/ti/msp430-gcc/bin/../lib/gcc/msp430-elf/8.3.0/libgcc.a(_clzsi2.o)
 .MSP430.attributes
                0x00000000000004ac       0x17 /home/howard/app/ti/msp430-gcc/bin/../lib/gcc/msp430-elf/8.3.0/libgcc.a(_udivdi3.o)
 .MSP430.attributes
                0x00000000000004c3       0x17 /home/howard/app/ti/msp430-gcc/bin/../lib/gcc/msp430-elf/8.3.0/libgcc.a(_pack_sf.o)
 .MSP430.attributes
                0x00000000000004da       0x17 /home/howard/app/ti/msp430-gcc/bin/../lib/gcc/msp430-elf/8.3.0/libgcc.a(_unpack_sf.o)
 .MSP430.attributes
                0x00000000000004f1       0x17 /home/howard/app/ti/msp430-gcc/bin/../lib/gcc/msp430-elf/8.3.0/libgcc.a(_fpcmp_parts_sf.o)
 .MSP430.attributes
                0x0000000000000508       0x17 /home/howard/app/ti/msp430-gcc/bin/../lib/gcc/msp430-elf/8.3.0/libgcc.a(_make_sf.o)
 .MSP430.attributes
                0x000000000000051f       0x17 /home/howard/app/ti/msp430-gcc/bin/../lib/gcc/msp430-elf/8.3.0/libgcc.a(_pack_df.o)
 .MSP430.attributes
                0x0000000000000536       0x17 /home/howard/app/ti/msp430-gcc/bin/../lib/gcc/msp430-elf/8.3.0/libgcc.a(_unpack_df.o)
 .MSP430.attributes
                0x000000000000054d       0x17 /home/howard/app/ti/msp430-gcc/bin/../lib/gcc/msp430-elf/8.3.0/libgcc.a(_fpcmp_parts_df.o)
 .MSP430.attributes
                0x0000000000000564       0x17 /home/howard/app/ti/msp430-gcc/bin/../lib/gcc/msp430-elf/8.3.0/libgcc.a(_clz.o)
 .MSP430.attributes
                0x000000000000057b       0x17 /home/howard/app/ti/msp430-gcc/bin/../lib/gcc/msp430-elf/8.3.0/libgcc.a(_clzdi2.o)
 .MSP430.attributes
                0x0000000000000592       0x17 /home/howard/app/ti/msp430-gcc/bin/../lib/gcc/msp430-elf/8.3.0/libmul_f5.a(lib2hw_mul_f5.o)
 .MSP430.attributes
                0x00000000000005a9       0x17 /home/howard/app/ti/msp430-gcc/bin/../lib/gcc/msp430-elf/8.3.0/../../../../msp430-elf/lib/libc.a(lib_a-abort.o)
 .MSP430.attributes
                0x00000000000005c0       0x17 /home/howard/app/ti/msp430-gcc/bin/../lib/gcc/msp430-elf/8.3.0/../../../../msp430-elf/lib/libc.a(lib_a-atof.o)
 .MSP430.attributes
                0x00000000000005d7       0x17 /home/howard/app/ti/msp430-gcc/bin/../lib/gcc/msp430-elf/8.3.0/../../../../msp430-elf/lib/libc.a(lib_a-atoi.o)
 .MSP430.attributes
                0x00000000000005ee       0x17 /home/howard/app/ti/msp430-gcc/bin/../lib/gcc/msp430-elf/8.3.0/../../../../msp430-elf/lib/libc.a(lib_a-malloc.o)
 .MSP430.attributes
                0x0000000000000605       0x17 /home/howard/app/ti/msp430-gcc/bin/../lib/gcc/msp430-elf/8.3.0/../../../../msp430-elf/lib/libc.a(lib_a-memcpy.o)
 .MSP430.attributes
                0x000000000000061c       0x17 /home/howard/app/ti/msp430-gcc/bin/../lib/gcc/msp430-elf/8.3.0/../../../../msp430-elf/lib/libc.a(lib_a-memset.o)
 .MSP430.attributes
                0x0000000000000633       0x17 /home/howard/app/ti/msp430-gcc/bin/../lib/gcc/msp430-elf/8.3.0/../../../../msp430-elf/lib/libc.a(lib_a-nano-freer.o)
 .MSP430.attributes
                0x000000000000064a       0x17 /home/howard/app/ti/msp430-gcc/bin/../lib/gcc/msp430-elf/8.3.0/../../../../msp430-elf/lib/libc.a(lib_a-nano-mallocr.o)
 .MSP430.attributes
                0x0000000000000661       0x17 /home/howard/app/ti/msp430-gcc/bin/../lib/gcc/msp430-elf/8.3.0/../../../../msp430-elf/lib/libc.a(lib_a-printf.o)
 .MSP430.attributes
                0x0000000000000678       0x17 /home/howard/app/ti/msp430-gcc/bin/../lib/gcc/msp430-elf/8.3.0/../../../../msp430-elf/lib/libc.a(lib_a-putchar.o)
 .MSP430.attributes
                0x000000000000068f       0x17 /home/howard/app/ti/msp430-gcc/bin/../lib/gcc/msp430-elf/8.3.0/../../../../msp430-elf/lib/libc.a(lib_a-putc.o)
 .MSP430.attributes
                0x00000000000006a6       0x17 /home/howard/app/ti/msp430-gcc/bin/../lib/gcc/msp430-elf/8.3.0/../../../../msp430-elf/lib/libc.a(lib_a-puts.o)
 .MSP430.attributes
                0x00000000000006bd       0x17 /home/howard/app/ti/msp430-gcc/bin/../lib/gcc/msp430-elf/8.3.0/../../../../msp430-elf/lib/libc.a(lib_a-sbrkr.o)
 .MSP430.attributes
                0x00000000000006d4       0x17 /home/howard/app/ti/msp430-gcc/bin/../lib/gcc/msp430-elf/8.3.0/../../../../msp430-elf/lib/libc.a(lib_a-signal.o)
 .MSP430.attributes
                0x00000000000006eb       0x17 /home/howard/app/ti/msp430-gcc/bin/../lib/gcc/msp430-elf/8.3.0/../../../../msp430-elf/lib/libc.a(lib_a-signalr.o)
 .MSP430.attributes
                0x0000000000000702       0x17 /home/howard/app/ti/msp430-gcc/bin/../lib/gcc/msp430-elf/8.3.0/../../../../msp430-elf/lib/libc.a(lib_a-sprintf.o)
 .MSP430.attributes
                0x0000000000000719       0x17 /home/howard/app/ti/msp430-gcc/bin/../lib/gcc/msp430-elf/8.3.0/../../../../msp430-elf/lib/libc.a(lib_a-strchr.o)
 .MSP430.attributes
                0x0000000000000730       0x17 /home/howard/app/ti/msp430-gcc/bin/../lib/gcc/msp430-elf/8.3.0/../../../../msp430-elf/lib/libc.a(lib_a-strlen.o)
 .MSP430.attributes
                0x0000000000000747       0x17 /home/howard/app/ti/msp430-gcc/bin/../lib/gcc/msp430-elf/8.3.0/../../../../msp430-elf/lib/libc.a(lib_a-strstr.o)
 .MSP430.attributes
                0x000000000000075e       0x17 /home/howard/app/ti/msp430-gcc/bin/../lib/gcc/msp430-elf/8.3.0/../../../../msp430-elf/lib/libc.a(lib_a-strtod.o)
 .MSP430.attributes
                0x0000000000000775       0x17 /home/howard/app/ti/msp430-gcc/bin/../lib/gcc/msp430-elf/8.3.0/../../../../msp430-elf/lib/libc.a(lib_a-strtok.o)
 .MSP430.attributes
                0x000000000000078c       0x17 /home/howard/app/ti/msp430-gcc/bin/../lib/gcc/msp430-elf/8.3.0/../../../../msp430-elf/lib/libc.a(lib_a-strtok_r.o)
 .MSP430.attributes
                0x00000000000007a3       0x17 /home/howard/app/ti/msp430-gcc/bin/../lib/gcc/msp430-elf/8.3.0/../../../../msp430-elf/lib/libc.a(lib_a-strtol.o)
 .MSP430.attributes
                0x00000000000007ba       0x17 /home/howard/app/ti/msp430-gcc/bin/../lib/gcc/msp430-elf/8.3.0/../../../../msp430-elf/lib/libc.a(lib_a-wbuf.o)
 .MSP430.attributes
                0x00000000000007d1       0x17 /home/howard/app/ti/msp430-gcc/bin/../lib/gcc/msp430-elf/8.3.0/../../../../msp430-elf/lib/libc.a(lib_a-wsetup.o)
 .MSP430.attributes
                0x00000000000007e8       0x17 /home/howard/app/ti/msp430-gcc/bin/../lib/gcc/msp430-elf/8.3.0/../../../../msp430-elf/lib/libc.a(lib_a-ctype_.o)
 .MSP430.attributes
                0x00000000000007ff       0x17 /home/howard/app/ti/msp430-gcc/bin/../lib/gcc/msp430-elf/8.3.0/../../../../msp430-elf/lib/libc.a(lib_a-fflush.o)
 .MSP430.attributes
                0x0000000000000816       0x17 /home/howard/app/ti/msp430-gcc/bin/../lib/gcc/msp430-elf/8.3.0/../../../../msp430-elf/lib/libc.a(lib_a-findfp.o)
 .MSP430.attributes
                0x000000000000082d       0x17 /home/howard/app/ti/msp430-gcc/bin/../lib/gcc/msp430-elf/8.3.0/../../../../msp430-elf/lib/libc.a(lib_a-fvwrite.o)
 .MSP430.attributes
                0x0000000000000844       0x17 /home/howard/app/ti/msp430-gcc/bin/../lib/gcc/msp430-elf/8.3.0/../../../../msp430-elf/lib/libc.a(lib_a-fwalk.o)
 .MSP430.attributes
                0x000000000000085b       0x17 /home/howard/app/ti/msp430-gcc/bin/../lib/gcc/msp430-elf/8.3.0/../../../../msp430-elf/lib/libc.a(lib_a-gdtoa-gethex.o)
 .MSP430.attributes
                0x0000000000000872       0x17 /home/howard/app/ti/msp430-gcc/bin/../lib/gcc/msp430-elf/8.3.0/../../../../msp430-elf/lib/libc.a(lib_a-gdtoa-hexnan.o)
 .MSP430.attributes
                0x0000000000000889       0x17 /home/howard/app/ti/msp430-gcc/bin/../lib/gcc/msp430-elf/8.3.0/../../../../msp430-elf/lib/libc.a(lib_a-impure.o)
 .MSP430.attributes
                0x00000000000008a0       0x17 /home/howard/app/ti/msp430-gcc/bin/../lib/gcc/msp430-elf/8.3.0/../../../../msp430-elf/lib/libc.a(lib_a-locale.o)
 .MSP430.attributes
                0x00000000000008b7       0x17 /home/howard/app/ti/msp430-gcc/bin/../lib/gcc/msp430-elf/8.3.0/../../../../msp430-elf/lib/libc.a(lib_a-makebuf.o)
 .MSP430.attributes
                0x00000000000008ce       0x17 /home/howard/app/ti/msp430-gcc/bin/../lib/gcc/msp430-elf/8.3.0/../../../../msp430-elf/lib/libc.a(lib_a-memchr.o)
 .MSP430.attributes
                0x00000000000008e5       0x17 /home/howard/app/ti/msp430-gcc/bin/../lib/gcc/msp430-elf/8.3.0/../../../../msp430-elf/lib/libc.a(lib_a-memmove.o)
 .MSP430.attributes
                0x00000000000008fc       0x17 /home/howard/app/ti/msp430-gcc/bin/../lib/gcc/msp430-elf/8.3.0/../../../../msp430-elf/lib/libc.a(lib_a-mprec.o)
 .MSP430.attributes
                0x0000000000000913       0x17 /home/howard/app/ti/msp430-gcc/bin/../lib/gcc/msp430-elf/8.3.0/../../../../msp430-elf/lib/libc.a(lib_a-nano-callocr.o)
 .MSP430.attributes
                0x000000000000092a       0x17 /home/howard/app/ti/msp430-gcc/bin/../lib/gcc/msp430-elf/8.3.0/../../../../msp430-elf/lib/libc.a(lib_a-nano-reallocr.o)
 .MSP430.attributes
                0x0000000000000941       0x17 /home/howard/app/ti/msp430-gcc/bin/../lib/gcc/msp430-elf/8.3.0/../../../../msp430-elf/lib/libc.a(lib_a-nano-svfprintf.o)
 .MSP430.attributes
                0x0000000000000958       0x17 /home/howard/app/ti/msp430-gcc/bin/../lib/gcc/msp430-elf/8.3.0/../../../../msp430-elf/lib/libc.a(lib_a-nano-vfprintf_i.o)
 .MSP430.attributes
                0x000000000000096f       0x17 /home/howard/app/ti/msp430-gcc/bin/../lib/gcc/msp430-elf/8.3.0/../../../../msp430-elf/lib/libc.a(lib_a-nano-vfprintf.o)
 .MSP430.attributes
                0x0000000000000986       0x17 /home/howard/app/ti/msp430-gcc/bin/../lib/gcc/msp430-elf/8.3.0/../../../../msp430-elf/lib/libc.a(lib_a-reent.o)
 .MSP430.attributes
                0x000000000000099d       0x17 /home/howard/app/ti/msp430-gcc/bin/../lib/gcc/msp430-elf/8.3.0/../../../../msp430-elf/lib/libc.a(lib_a-sf_nan.o)
 .MSP430.attributes
                0x00000000000009b4       0x17 /home/howard/app/ti/msp430-gcc/bin/../lib/gcc/msp430-elf/8.3.0/../../../../msp430-elf/lib/libc.a(lib_a-stdio.o)
 .MSP430.attributes
                0x00000000000009cb       0x17 /home/howard/app/ti/msp430-gcc/bin/../lib/gcc/msp430-elf/8.3.0/../../../../msp430-elf/lib/libc.a(lib_a-strcmp.o)
 .MSP430.attributes
                0x00000000000009e2       0x17 /home/howard/app/ti/msp430-gcc/bin/../lib/gcc/msp430-elf/8.3.0/../../../../msp430-elf/lib/libc.a(lib_a-strncmp.o)
 .MSP430.attributes
                0x00000000000009f9       0x17 /home/howard/app/ti/msp430-gcc/bin/../lib/gcc/msp430-elf/8.3.0/../../../../msp430-elf/lib/libc.a(lib_a-writer.o)
 .MSP430.attributes
                0x0000000000000a10       0x17 /home/howard/app/ti/msp430-gcc/bin/../lib/gcc/msp430-elf/8.3.0/../../../../msp430-elf/lib/libc.a(lib_a-closer.o)
 .MSP430.attributes
                0x0000000000000a27       0x17 /home/howard/app/ti/msp430-gcc/bin/../lib/gcc/msp430-elf/8.3.0/../../../../msp430-elf/lib/libc.a(lib_a-fclose.o)
 .MSP430.attributes
                0x0000000000000a3e       0x17 /home/howard/app/ti/msp430-gcc/bin/../lib/gcc/msp430-elf/8.3.0/../../../../msp430-elf/lib/libc.a(lib_a-fputwc.o)
 .MSP430.attributes
                0x0000000000000a55       0x17 /home/howard/app/ti/msp430-gcc/bin/../lib/gcc/msp430-elf/8.3.0/../../../../msp430-elf/lib/libc.a(lib_a-fstatr.o)
 .MSP430.attributes
                0x0000000000000a6c       0x17 /home/howard/app/ti/msp430-gcc/bin/../lib/gcc/msp430-elf/8.3.0/../../../../msp430-elf/lib/libc.a(lib_a-isattyr.o)
 .MSP430.attributes
                0x0000000000000a83       0x17 /home/howard/app/ti/msp430-gcc/bin/../lib/gcc/msp430-elf/8.3.0/../../../../msp430-elf/lib/libc.a(lib_a-lseekr.o)
 .MSP430.attributes
                0x0000000000000a9a       0x17 /home/howard/app/ti/msp430-gcc/bin/../lib/gcc/msp430-elf/8.3.0/../../../../msp430-elf/lib/libc.a(lib_a-nano-msizer.o)
 .MSP430.attributes
                0x0000000000000ab1       0x17 /home/howard/app/ti/msp430-gcc/bin/../lib/gcc/msp430-elf/8.3.0/../../../../msp430-elf/lib/libc.a(lib_a-readr.o)
 .MSP430.attributes
                0x0000000000000ac8       0x17 /home/howard/app/ti/msp430-gcc/bin/../lib/gcc/msp430-elf/8.3.0/../../../../msp430-elf/lib/libc.a(lib_a-wcrtomb.o)
 .MSP430.attributes
                0x0000000000000adf       0x17 /home/howard/app/ti/msp430-gcc/bin/../lib/gcc/msp430-elf/8.3.0/../../../../msp430-elf/lib/libc.a(lib_a-wctomb_r.o)
 .MSP430.attributes
                0x0000000000000af6       0x17 /home/howard/app/ti/msp430-gcc/bin/../lib/gcc/msp430-elf/8.3.0/libgcc.a(_muldi3.o)
 .MSP430.attributes
                0x0000000000000b0d       0x17 /home/howard/app/ti/msp430-gcc/bin/../lib/gcc/msp430-elf/8.3.0/libgcc.a(_fixunsdfsi.o)
 .MSP430.attributes
                0x0000000000000b24       0x17 /home/howard/app/ti/msp430-gcc/bin/../lib/gcc/msp430-elf/8.3.0/libgcc.a(_eq_df.o)
 .MSP430.attributes
                0x0000000000000b3b       0x17 /home/howard/app/ti/msp430-gcc/bin/../lib/gcc/msp430-elf/8.3.0/libgcc.a(_gt_df.o)
 .MSP430.attributes
                0x0000000000000b52       0x17 /home/howard/app/ti/msp430-gcc/bin/../lib/gcc/msp430-elf/8.3.0/libgcc.a(_ge_df.o)
 .MSP430.attributes
                0x0000000000000b69       0x17 /home/howard/app/ti/msp430-gcc/bin/../lib/gcc/msp430-elf/8.3.0/libgcc.a(_le_df.o)
 .MSP430.attributes
                0x0000000000000b80       0x17 /home/howard/app/ti/msp430-gcc/bin/../lib/gcc/msp430-elf/8.3.0/libgcc.a(_unord_df.o)
 .MSP430.attributes
                0x0000000000000b97       0x17 /home/howard/app/ti/msp430-gcc/bin/../lib/gcc/msp430-elf/8.3.0/libgcc.a(_usi_to_df.o)
 .MSP430.attributes
                0x0000000000000bae       0x17 /home/howard/app/ti/msp430-gcc/bin/../lib/gcc/msp430-elf/8.3.0/../../../../msp430-elf/lib/libcrt.a(crt_bss.o)
 .MSP430.attributes
                0x0000000000000bc5       0x17 /home/howard/app/ti/msp430-gcc/bin/../lib/gcc/msp430-elf/8.3.0/../../../../msp430-elf/lib/libcrt.a(crt_movedata.o)
 .MSP430.attributes
                0x0000000000000bdc       0x17 /home/howard/app/ti/msp430-gcc/bin/../lib/gcc/msp430-elf/8.3.0/../../../../msp430-elf/lib/libcrt.a(crt_main.o)
 .MSP430.attributes
                0x0000000000000bf3       0x17 /home/howard/app/ti/msp430-gcc/bin/../lib/gcc/msp430-elf/8.3.0/../../../../msp430-elf/lib/libnosys.a(ciosyscalls.o)
 .MSP430.attributes
                0x0000000000000c0a       0x17 /home/howard/app/ti/msp430-gcc/bin/../lib/gcc/msp430-elf/8.3.0/../../../../msp430-elf/lib/libnosys.a(write.o)
 .MSP430.attributes
                0x0000000000000c21       0x17 /home/howard/app/ti/msp430-gcc/bin/../lib/gcc/msp430-elf/8.3.0/../../../../msp430-elf/lib/libnosys.a(sbrk.o)
 .MSP430.attributes
                0x0000000000000c38       0x17 /home/howard/app/ti/msp430-gcc/bin/../lib/gcc/msp430-elf/8.3.0/../../../../msp430-elf/lib/libnosys.a(cio.o)
 .MSP430.attributes
                0x0000000000000c4f       0x17 /home/howard/app/ti/msp430-gcc/bin/../lib/gcc/msp430-elf/8.3.0/../../../../msp430-elf/lib/libc.a(lib_a-errno.o)
 .MSP430.attributes
                0x0000000000000c66       0x17 /home/howard/app/ti/msp430-gcc/bin/../lib/gcc/msp430-elf/8.3.0/crtend_no_eh.o
 *(.gnu.attributes)
 *(__TI_build_attributes)

.stab
 *(.stab)

.stabstr
 *(.stabstr)

.stab.excl
 *(.stab.excl)

.stab.exclstr
 *(.stab.exclstr)

.stab.index
 *(.stab.index)

.stab.indexstr
 *(.stab.indexstr)

.comment        0x0000000000000000       0x39
 *(.comment)
 .comment       0x0000000000000000       0x39 /home/howard/app/ti/msp430-gcc/bin/../lib/gcc/msp430-elf/8.3.0/crtbegin_no_eh.o
                                         0x3a (size before relaxing)
 .comment       0x0000000000000039       0x3a main.o
 .comment       0x0000000000000039       0x3a adc.o
 .comment       0x0000000000000039       0x3a common.o
 .comment       0x0000000000000039       0x3a debug.o
 .comment       0x0000000000000039       0x3a flash.o
 .comment       0x0000000000000039       0x3a GTM900C.o
 .comment       0x0000000000000039       0x3a hydrologytask.o
 .comment       0x0000000000000039       0x3a packet.o
 .comment       0x0000000000000039       0x3a rom.o
 .comment       0x0000000000000039       0x3a Sampler.o
 .comment       0x0000000000000039       0x3a timer.o
 .comment       0x0000000000000039       0x3a uart1.o
 .comment       0x0000000000000039       0x3a uart_config.o
 .comment       0x0000000000000039       0x3a blueTooth.o
 .comment       0x0000000000000039       0x3a Console.o
 .comment       0x0000000000000039       0x3a dtu.o
 .comment       0x0000000000000039       0x3a GSM.o
 .comment       0x0000000000000039       0x3a hydrologycommand.o
 .comment       0x0000000000000039       0x3a led.o
 .comment       0x0000000000000039       0x3a message.o
 .comment       0x0000000000000039       0x3a reportbinding.o
 .comment       0x0000000000000039       0x3a rtc.o
 .comment       0x0000000000000039       0x3a store.o
 .comment       0x0000000000000039       0x3a uart0.o
 .comment       0x0000000000000039       0x3a uart3.o
 .comment       0x0000000000000039       0x3a wifi_config.o
 .comment       0x0000000000000039       0x3a /home/howard/app/ti/msp430-gcc/bin/../lib/gcc/msp430-elf/8.3.0/libgcc.a(_addsub_sf.o)
 .comment       0x0000000000000039       0x3a /home/howard/app/ti/msp430-gcc/bin/../lib/gcc/msp430-elf/8.3.0/libgcc.a(_mul_sf.o)
 .comment       0x0000000000000039       0x3a /home/howard/app/ti/msp430-gcc/bin/../lib/gcc/msp430-elf/8.3.0/libgcc.a(_div_sf.o)
 .comment       0x0000000000000039       0x3a /home/howard/app/ti/msp430-gcc/bin/../lib/gcc/msp430-elf/8.3.0/libgcc.a(_gt_sf.o)
 .comment       0x0000000000000039       0x3a /home/howard/app/ti/msp430-gcc/bin/../lib/gcc/msp430-elf/8.3.0/libgcc.a(_lt_sf.o)
 .comment       0x0000000000000039       0x3a /home/howard/app/ti/msp430-gcc/bin/../lib/gcc/msp430-elf/8.3.0/libgcc.a(_si_to_sf.o)
 .comment       0x0000000000000039       0x3a /home/howard/app/ti/msp430-gcc/bin/../lib/gcc/msp430-elf/8.3.0/libgcc.a(_sf_to_si.o)
 .comment       0x0000000000000039       0x3a /home/howard/app/ti/msp430-gcc/bin/../lib/gcc/msp430-elf/8.3.0/libgcc.a(_sf_to_df.o)
 .comment       0x0000000000000039       0x3a /home/howard/app/ti/msp430-gcc/bin/../lib/gcc/msp430-elf/8.3.0/libgcc.a(_thenan_sf.o)
 .comment       0x0000000000000039       0x3a /home/howard/app/ti/msp430-gcc/bin/../lib/gcc/msp430-elf/8.3.0/libgcc.a(_addsub_df.o)
 .comment       0x0000000000000039       0x3a /home/howard/app/ti/msp430-gcc/bin/../lib/gcc/msp430-elf/8.3.0/libgcc.a(_mul_df.o)
 .comment       0x0000000000000039       0x3a /home/howard/app/ti/msp430-gcc/bin/../lib/gcc/msp430-elf/8.3.0/libgcc.a(_div_df.o)
 .comment       0x0000000000000039       0x3a /home/howard/app/ti/msp430-gcc/bin/../lib/gcc/msp430-elf/8.3.0/libgcc.a(_lt_df.o)
 .comment       0x0000000000000039       0x3a /home/howard/app/ti/msp430-gcc/bin/../lib/gcc/msp430-elf/8.3.0/libgcc.a(_si_to_df.o)
 .comment       0x0000000000000039       0x3a /home/howard/app/ti/msp430-gcc/bin/../lib/gcc/msp430-elf/8.3.0/libgcc.a(_df_to_si.o)
 .comment       0x0000000000000039       0x3a /home/howard/app/ti/msp430-gcc/bin/../lib/gcc/msp430-elf/8.3.0/libgcc.a(_make_df.o)
 .comment       0x0000000000000039       0x3a /home/howard/app/ti/msp430-gcc/bin/../lib/gcc/msp430-elf/8.3.0/libgcc.a(_df_to_sf.o)
 .comment       0x0000000000000039       0x3a /home/howard/app/ti/msp430-gcc/bin/../lib/gcc/msp430-elf/8.3.0/libgcc.a(_thenan_df.o)
 .comment       0x0000000000000039       0x3a /home/howard/app/ti/msp430-gcc/bin/../lib/gcc/msp430-elf/8.3.0/libgcc.a(lib2divHI.o)
 .comment       0x0000000000000039       0x3a /home/howard/app/ti/msp430-gcc/bin/../lib/gcc/msp430-elf/8.3.0/libgcc.a(lib2divSI.o)
 .comment       0x0000000000000039       0x3a /home/howard/app/ti/msp430-gcc/bin/../lib/gcc/msp430-elf/8.3.0/libgcc.a(_clzsi2.o)
 .comment       0x0000000000000039       0x3a /home/howard/app/ti/msp430-gcc/bin/../lib/gcc/msp430-elf/8.3.0/libgcc.a(_udivdi3.o)
 .comment       0x0000000000000039       0x3a /home/howard/app/ti/msp430-gcc/bin/../lib/gcc/msp430-elf/8.3.0/libgcc.a(_pack_sf.o)
 .comment       0x0000000000000039       0x3a /home/howard/app/ti/msp430-gcc/bin/../lib/gcc/msp430-elf/8.3.0/libgcc.a(_unpack_sf.o)
 .comment       0x0000000000000039       0x3a /home/howard/app/ti/msp430-gcc/bin/../lib/gcc/msp430-elf/8.3.0/libgcc.a(_fpcmp_parts_sf.o)
 .comment       0x0000000000000039       0x3a /home/howard/app/ti/msp430-gcc/bin/../lib/gcc/msp430-elf/8.3.0/libgcc.a(_make_sf.o)
 .comment       0x0000000000000039       0x3a /home/howard/app/ti/msp430-gcc/bin/../lib/gcc/msp430-elf/8.3.0/libgcc.a(_pack_df.o)
 .comment       0x0000000000000039       0x3a /home/howard/app/ti/msp430-gcc/bin/../lib/gcc/msp430-elf/8.3.0/libgcc.a(_unpack_df.o)
 .comment       0x0000000000000039       0x3a /home/howard/app/ti/msp430-gcc/bin/../lib/gcc/msp430-elf/8.3.0/libgcc.a(_fpcmp_parts_df.o)
 .comment       0x0000000000000039       0x3a /home/howard/app/ti/msp430-gcc/bin/../lib/gcc/msp430-elf/8.3.0/libgcc.a(_clz.o)
 .comment       0x0000000000000039       0x3a /home/howard/app/ti/msp430-gcc/bin/../lib/gcc/msp430-elf/8.3.0/libgcc.a(_clzdi2.o)
 .comment       0x0000000000000039       0x3a /home/howard/app/ti/msp430-gcc/bin/../lib/gcc/msp430-elf/8.3.0/../../../../msp430-elf/lib/libc.a(lib_a-abort.o)
 .comment       0x0000000000000039       0x3a /home/howard/app/ti/msp430-gcc/bin/../lib/gcc/msp430-elf/8.3.0/../../../../msp430-elf/lib/libc.a(lib_a-atof.o)
 .comment       0x0000000000000039       0x3a /home/howard/app/ti/msp430-gcc/bin/../lib/gcc/msp430-elf/8.3.0/../../../../msp430-elf/lib/libc.a(lib_a-atoi.o)
 .comment       0x0000000000000039       0x3a /home/howard/app/ti/msp430-gcc/bin/../lib/gcc/msp430-elf/8.3.0/../../../../msp430-elf/lib/libc.a(lib_a-malloc.o)
 .comment       0x0000000000000039       0x3a /home/howard/app/ti/msp430-gcc/bin/../lib/gcc/msp430-elf/8.3.0/../../../../msp430-elf/lib/libc.a(lib_a-memcpy.o)
 .comment       0x0000000000000039       0x3a /home/howard/app/ti/msp430-gcc/bin/../lib/gcc/msp430-elf/8.3.0/../../../../msp430-elf/lib/libc.a(lib_a-memset.o)
 .comment       0x0000000000000039       0x3a /home/howard/app/ti/msp430-gcc/bin/../lib/gcc/msp430-elf/8.3.0/../../../../msp430-elf/lib/libc.a(lib_a-nano-freer.o)
 .comment       0x0000000000000039       0x3a /home/howard/app/ti/msp430-gcc/bin/../lib/gcc/msp430-elf/8.3.0/../../../../msp430-elf/lib/libc.a(lib_a-nano-mallocr.o)
 .comment       0x0000000000000039       0x3a /home/howard/app/ti/msp430-gcc/bin/../lib/gcc/msp430-elf/8.3.0/../../../../msp430-elf/lib/libc.a(lib_a-printf.o)
 .comment       0x0000000000000039       0x3a /home/howard/app/ti/msp430-gcc/bin/../lib/gcc/msp430-elf/8.3.0/../../../../msp430-elf/lib/libc.a(lib_a-putchar.o)
 .comment       0x0000000000000039       0x3a /home/howard/app/ti/msp430-gcc/bin/../lib/gcc/msp430-elf/8.3.0/../../../../msp430-elf/lib/libc.a(lib_a-putc.o)
 .comment       0x0000000000000039       0x3a /home/howard/app/ti/msp430-gcc/bin/../lib/gcc/msp430-elf/8.3.0/../../../../msp430-elf/lib/libc.a(lib_a-puts.o)
 .comment       0x0000000000000039       0x3a /home/howard/app/ti/msp430-gcc/bin/../lib/gcc/msp430-elf/8.3.0/../../../../msp430-elf/lib/libc.a(lib_a-sbrkr.o)
 .comment       0x0000000000000039       0x3a /home/howard/app/ti/msp430-gcc/bin/../lib/gcc/msp430-elf/8.3.0/../../../../msp430-elf/lib/libc.a(lib_a-signal.o)
 .comment       0x0000000000000039       0x3a /home/howard/app/ti/msp430-gcc/bin/../lib/gcc/msp430-elf/8.3.0/../../../../msp430-elf/lib/libc.a(lib_a-signalr.o)
 .comment       0x0000000000000039       0x3a /home/howard/app/ti/msp430-gcc/bin/../lib/gcc/msp430-elf/8.3.0/../../../../msp430-elf/lib/libc.a(lib_a-sprintf.o)
 .comment       0x0000000000000039       0x3a /home/howard/app/ti/msp430-gcc/bin/../lib/gcc/msp430-elf/8.3.0/../../../../msp430-elf/lib/libc.a(lib_a-strchr.o)
 .comment       0x0000000000000039       0x3a /home/howard/app/ti/msp430-gcc/bin/../lib/gcc/msp430-elf/8.3.0/../../../../msp430-elf/lib/libc.a(lib_a-strlen.o)
 .comment       0x0000000000000039       0x3a /home/howard/app/ti/msp430-gcc/bin/../lib/gcc/msp430-elf/8.3.0/../../../../msp430-elf/lib/libc.a(lib_a-strstr.o)
 .comment       0x0000000000000039       0x3a /home/howard/app/ti/msp430-gcc/bin/../lib/gcc/msp430-elf/8.3.0/../../../../msp430-elf/lib/libc.a(lib_a-strtod.o)
 .comment       0x0000000000000039       0x3a /home/howard/app/ti/msp430-gcc/bin/../lib/gcc/msp430-elf/8.3.0/../../../../msp430-elf/lib/libc.a(lib_a-strtok.o)
 .comment       0x0000000000000039       0x3a /home/howard/app/ti/msp430-gcc/bin/../lib/gcc/msp430-elf/8.3.0/../../../../msp430-elf/lib/libc.a(lib_a-strtok_r.o)
 .comment       0x0000000000000039       0x3a /home/howard/app/ti/msp430-gcc/bin/../lib/gcc/msp430-elf/8.3.0/../../../../msp430-elf/lib/libc.a(lib_a-strtol.o)
 .comment       0x0000000000000039       0x3a /home/howard/app/ti/msp430-gcc/bin/../lib/gcc/msp430-elf/8.3.0/../../../../msp430-elf/lib/libc.a(lib_a-wbuf.o)
 .comment       0x0000000000000039       0x3a /home/howard/app/ti/msp430-gcc/bin/../lib/gcc/msp430-elf/8.3.0/../../../../msp430-elf/lib/libc.a(lib_a-wsetup.o)
 .comment       0x0000000000000039       0x3a /home/howard/app/ti/msp430-gcc/bin/../lib/gcc/msp430-elf/8.3.0/../../../../msp430-elf/lib/libc.a(lib_a-ctype_.o)
 .comment       0x0000000000000039       0x3a /home/howard/app/ti/msp430-gcc/bin/../lib/gcc/msp430-elf/8.3.0/../../../../msp430-elf/lib/libc.a(lib_a-fflush.o)
 .comment       0x0000000000000039       0x3a /home/howard/app/ti/msp430-gcc/bin/../lib/gcc/msp430-elf/8.3.0/../../../../msp430-elf/lib/libc.a(lib_a-findfp.o)
 .comment       0x0000000000000039       0x3a /home/howard/app/ti/msp430-gcc/bin/../lib/gcc/msp430-elf/8.3.0/../../../../msp430-elf/lib/libc.a(lib_a-fvwrite.o)
 .comment       0x0000000000000039       0x3a /home/howard/app/ti/msp430-gcc/bin/../lib/gcc/msp430-elf/8.3.0/../../../../msp430-elf/lib/libc.a(lib_a-fwalk.o)
 .comment       0x0000000000000039       0x3a /home/howard/app/ti/msp430-gcc/bin/../lib/gcc/msp430-elf/8.3.0/../../../../msp430-elf/lib/libc.a(lib_a-gdtoa-gethex.o)
 .comment       0x0000000000000039       0x3a /home/howard/app/ti/msp430-gcc/bin/../lib/gcc/msp430-elf/8.3.0/../../../../msp430-elf/lib/libc.a(lib_a-gdtoa-hexnan.o)
 .comment       0x0000000000000039       0x3a /home/howard/app/ti/msp430-gcc/bin/../lib/gcc/msp430-elf/8.3.0/../../../../msp430-elf/lib/libc.a(lib_a-impure.o)
 .comment       0x0000000000000039       0x3a /home/howard/app/ti/msp430-gcc/bin/../lib/gcc/msp430-elf/8.3.0/../../../../msp430-elf/lib/libc.a(lib_a-locale.o)
 .comment       0x0000000000000039       0x3a /home/howard/app/ti/msp430-gcc/bin/../lib/gcc/msp430-elf/8.3.0/../../../../msp430-elf/lib/libc.a(lib_a-makebuf.o)
 .comment       0x0000000000000039       0x3a /home/howard/app/ti/msp430-gcc/bin/../lib/gcc/msp430-elf/8.3.0/../../../../msp430-elf/lib/libc.a(lib_a-memchr.o)
 .comment       0x0000000000000039       0x3a /home/howard/app/ti/msp430-gcc/bin/../lib/gcc/msp430-elf/8.3.0/../../../../msp430-elf/lib/libc.a(lib_a-memmove.o)
 .comment       0x0000000000000039       0x3a /home/howard/app/ti/msp430-gcc/bin/../lib/gcc/msp430-elf/8.3.0/../../../../msp430-elf/lib/libc.a(lib_a-mprec.o)
 .comment       0x0000000000000039       0x3a /home/howard/app/ti/msp430-gcc/bin/../lib/gcc/msp430-elf/8.3.0/../../../../msp430-elf/lib/libc.a(lib_a-nano-callocr.o)
 .comment       0x0000000000000039       0x3a /home/howard/app/ti/msp430-gcc/bin/../lib/gcc/msp430-elf/8.3.0/../../../../msp430-elf/lib/libc.a(lib_a-nano-reallocr.o)
 .comment       0x0000000000000039       0x3a /home/howard/app/ti/msp430-gcc/bin/../lib/gcc/msp430-elf/8.3.0/../../../../msp430-elf/lib/libc.a(lib_a-nano-svfprintf.o)
 .comment       0x0000000000000039       0x3a /home/howard/app/ti/msp430-gcc/bin/../lib/gcc/msp430-elf/8.3.0/../../../../msp430-elf/lib/libc.a(lib_a-nano-vfprintf_i.o)
 .comment       0x0000000000000039       0x3a /home/howard/app/ti/msp430-gcc/bin/../lib/gcc/msp430-elf/8.3.0/../../../../msp430-elf/lib/libc.a(lib_a-nano-vfprintf.o)
 .comment       0x0000000000000039       0x3a /home/howard/app/ti/msp430-gcc/bin/../lib/gcc/msp430-elf/8.3.0/../../../../msp430-elf/lib/libc.a(lib_a-reent.o)
 .comment       0x0000000000000039       0x3a /home/howard/app/ti/msp430-gcc/bin/../lib/gcc/msp430-elf/8.3.0/../../../../msp430-elf/lib/libc.a(lib_a-sf_nan.o)
 .comment       0x0000000000000039       0x3a /home/howard/app/ti/msp430-gcc/bin/../lib/gcc/msp430-elf/8.3.0/../../../../msp430-elf/lib/libc.a(lib_a-stdio.o)
 .comment       0x0000000000000039       0x3a /home/howard/app/ti/msp430-gcc/bin/../lib/gcc/msp430-elf/8.3.0/../../../../msp430-elf/lib/libc.a(lib_a-strcmp.o)
 .comment       0x0000000000000039       0x3a /home/howard/app/ti/msp430-gcc/bin/../lib/gcc/msp430-elf/8.3.0/../../../../msp430-elf/lib/libc.a(lib_a-strncmp.o)
 .comment       0x0000000000000039       0x3a /home/howard/app/ti/msp430-gcc/bin/../lib/gcc/msp430-elf/8.3.0/../../../../msp430-elf/lib/libc.a(lib_a-writer.o)
 .comment       0x0000000000000039       0x3a /home/howard/app/ti/msp430-gcc/bin/../lib/gcc/msp430-elf/8.3.0/../../../../msp430-elf/lib/libc.a(lib_a-closer.o)
 .comment       0x0000000000000039       0x3a /home/howard/app/ti/msp430-gcc/bin/../lib/gcc/msp430-elf/8.3.0/../../../../msp430-elf/lib/libc.a(lib_a-fclose.o)
 .comment       0x0000000000000039       0x3a /home/howard/app/ti/msp430-gcc/bin/../lib/gcc/msp430-elf/8.3.0/../../../../msp430-elf/lib/libc.a(lib_a-fputwc.o)
 .comment       0x0000000000000039       0x3a /home/howard/app/ti/msp430-gcc/bin/../lib/gcc/msp430-elf/8.3.0/../../../../msp430-elf/lib/libc.a(lib_a-fstatr.o)
 .comment       0x0000000000000039       0x3a /home/howard/app/ti/msp430-gcc/bin/../lib/gcc/msp430-elf/8.3.0/../../../../msp430-elf/lib/libc.a(lib_a-isattyr.o)
 .comment       0x0000000000000039       0x3a /home/howard/app/ti/msp430-gcc/bin/../lib/gcc/msp430-elf/8.3.0/../../../../msp430-elf/lib/libc.a(lib_a-lseekr.o)
 .comment       0x0000000000000039       0x3a /home/howard/app/ti/msp430-gcc/bin/../lib/gcc/msp430-elf/8.3.0/../../../../msp430-elf/lib/libc.a(lib_a-nano-msizer.o)
 .comment       0x0000000000000039       0x3a /home/howard/app/ti/msp430-gcc/bin/../lib/gcc/msp430-elf/8.3.0/../../../../msp430-elf/lib/libc.a(lib_a-readr.o)
 .comment       0x0000000000000039       0x3a /home/howard/app/ti/msp430-gcc/bin/../lib/gcc/msp430-elf/8.3.0/../../../../msp430-elf/lib/libc.a(lib_a-wcrtomb.o)
 .comment       0x0000000000000039       0x3a /home/howard/app/ti/msp430-gcc/bin/../lib/gcc/msp430-elf/8.3.0/../../../../msp430-elf/lib/libc.a(lib_a-wctomb_r.o)
 .comment       0x0000000000000039       0x3a /home/howard/app/ti/msp430-gcc/bin/../lib/gcc/msp430-elf/8.3.0/libgcc.a(_muldi3.o)
 .comment       0x0000000000000039       0x3a /home/howard/app/ti/msp430-gcc/bin/../lib/gcc/msp430-elf/8.3.0/libgcc.a(_fixunsdfsi.o)
 .comment       0x0000000000000039       0x3a /home/howard/app/ti/msp430-gcc/bin/../lib/gcc/msp430-elf/8.3.0/libgcc.a(_eq_df.o)
 .comment       0x0000000000000039       0x3a /home/howard/app/ti/msp430-gcc/bin/../lib/gcc/msp430-elf/8.3.0/libgcc.a(_gt_df.o)
 .comment       0x0000000000000039       0x3a /home/howard/app/ti/msp430-gcc/bin/../lib/gcc/msp430-elf/8.3.0/libgcc.a(_ge_df.o)
 .comment       0x0000000000000039       0x3a /home/howard/app/ti/msp430-gcc/bin/../lib/gcc/msp430-elf/8.3.0/libgcc.a(_le_df.o)
 .comment       0x0000000000000039       0x3a /home/howard/app/ti/msp430-gcc/bin/../lib/gcc/msp430-elf/8.3.0/libgcc.a(_unord_df.o)
 .comment       0x0000000000000039       0x3a /home/howard/app/ti/msp430-gcc/bin/../lib/gcc/msp430-elf/8.3.0/libgcc.a(_usi_to_df.o)
 .comment       0x0000000000000039       0x3a /home/howard/app/ti/msp430-gcc/bin/../lib/gcc/msp430-elf/8.3.0/../../../../msp430-elf/lib/libnosys.a(write.o)
 .comment       0x0000000000000039       0x3a /home/howard/app/ti/msp430-gcc/bin/../lib/gcc/msp430-elf/8.3.0/../../../../msp430-elf/lib/libnosys.a(sbrk.o)
 .comment       0x0000000000000039       0x3a /home/howard/app/ti/msp430-gcc/bin/../lib/gcc/msp430-elf/8.3.0/../../../../msp430-elf/lib/libc.a(lib_a-errno.o)
 .comment       0x0000000000000039       0x3a /home/howard/app/ti/msp430-gcc/bin/../lib/gcc/msp430-elf/8.3.0/crtend_no_eh.o

.debug
 *(.debug)

.line
 *(.line)

.debug_srcinfo
 *(.debug_srcinfo)

.debug_sfnames
 *(.debug_sfnames)

.debug_aranges  0x0000000000000000      0x338
 *(.debug_aranges)
 .debug_aranges
                0x0000000000000000       0x20 main.o
 .debug_aranges
                0x0000000000000020       0x20 adc.o
 .debug_aranges
                0x0000000000000040       0x20 common.o
 .debug_aranges
                0x0000000000000060       0x20 debug.o
 .debug_aranges
                0x0000000000000080       0x18 flash.o
 .debug_aranges
                0x0000000000000098       0x20 GTM900C.o
 .debug_aranges
                0x00000000000000b8       0x20 hydrologytask.o
 .debug_aranges
                0x00000000000000d8       0x20 packet.o
 .debug_aranges
                0x00000000000000f8       0x20 rom.o
 .debug_aranges
                0x0000000000000118       0x20 Sampler.o
 .debug_aranges
                0x0000000000000138       0x20 timer.o
 .debug_aranges
                0x0000000000000158       0x20 uart1.o
 .debug_aranges
                0x0000000000000178       0x20 uart_config.o
 .debug_aranges
                0x0000000000000198       0x20 blueTooth.o
 .debug_aranges
                0x00000000000001b8       0x20 Console.o
 .debug_aranges
                0x00000000000001d8       0x20 dtu.o
 .debug_aranges
                0x00000000000001f8       0x20 GSM.o
 .debug_aranges
                0x0000000000000218       0x20 hydrologycommand.o
 .debug_aranges
                0x0000000000000238       0x20 led.o
 .debug_aranges
                0x0000000000000258       0x20 message.o
 .debug_aranges
                0x0000000000000278       0x20 reportbinding.o
 .debug_aranges
                0x0000000000000298       0x20 rtc.o
 .debug_aranges
                0x00000000000002b8       0x20 store.o
 .debug_aranges
                0x00000000000002d8       0x20 uart0.o
 .debug_aranges
                0x00000000000002f8       0x20 uart3.o
 .debug_aranges
                0x0000000000000318       0x20 wifi_config.o

.debug_pubnames
 *(.debug_pubnames)

.debug_info     0x0000000000000000    0x5be0b
 *(.debug_info .gnu.linkonce.wi.*)
 .debug_info    0x0000000000000000     0x3370 main.o
 .debug_info    0x0000000000003370     0x2ecf adc.o
 .debug_info    0x000000000000623f     0x4e2a common.o
 .debug_info    0x000000000000b069      0xbf2 debug.o
 .debug_info    0x000000000000bc5b      0x888 flash.o
 .debug_info    0x000000000000c4e3     0x5e22 GTM900C.o
 .debug_info    0x0000000000012305     0x36b3 hydrologytask.o
 .debug_info    0x00000000000159b8      0xb1d packet.o
 .debug_info    0x00000000000164d5     0x35e4 rom.o
 .debug_info    0x0000000000019ab9     0x3df8 Sampler.o
 .debug_info    0x000000000001d8b1     0x2dc5 timer.o
 .debug_info    0x0000000000020676     0x2f78 uart1.o
 .debug_info    0x00000000000235ee     0x2e8e uart_config.o
 .debug_info    0x000000000002647c     0x4669 blueTooth.o
 .debug_info    0x000000000002aae5     0x2f44 Console.o
 .debug_info    0x000000000002da29     0x595a dtu.o
 .debug_info    0x0000000000033383     0x71bc GSM.o
 .debug_info    0x000000000003a53f     0x51b5 hydrologycommand.o
 .debug_info    0x000000000003f6f4     0x3119 led.o
 .debug_info    0x000000000004280d     0x4aac message.o
 .debug_info    0x00000000000472b9      0xc0c reportbinding.o
 .debug_info    0x0000000000047ec5     0x52de rtc.o
 .debug_info    0x000000000004d1a3     0x46a4 store.o
 .debug_info    0x0000000000051847     0x315f uart0.o
 .debug_info    0x00000000000549a6     0x2efa uart3.o
 .debug_info    0x00000000000578a0     0x456b wifi_config.o

.debug_abbrev   0x0000000000000000     0x4ed6
 *(.debug_abbrev)
 .debug_abbrev  0x0000000000000000      0x296 main.o
 .debug_abbrev  0x0000000000000296      0x268 adc.o
 .debug_abbrev  0x00000000000004fe      0x4c1 common.o
 .debug_abbrev  0x00000000000009bf      0x285 debug.o
 .debug_abbrev  0x0000000000000c44       0x6e flash.o
 .debug_abbrev  0x0000000000000cb2      0x3bd GTM900C.o
 .debug_abbrev  0x000000000000106f      0x39e hydrologytask.o
 .debug_abbrev  0x000000000000140d      0x217 packet.o
 .debug_abbrev  0x0000000000001624      0x324 rom.o
 .debug_abbrev  0x0000000000001948      0x3de Sampler.o
 .debug_abbrev  0x0000000000001d26      0x292 timer.o
 .debug_abbrev  0x0000000000001fb8      0x32f uart1.o
 .debug_abbrev  0x00000000000022e7      0x252 uart_config.o
 .debug_abbrev  0x0000000000002539      0x3e9 blueTooth.o
 .debug_abbrev  0x0000000000002922      0x240 Console.o
 .debug_abbrev  0x0000000000002b62      0x341 dtu.o
 .debug_abbrev  0x0000000000002ea3      0x36f GSM.o
 .debug_abbrev  0x0000000000003212      0x395 hydrologycommand.o
 .debug_abbrev  0x00000000000035a7      0x1da led.o
 .debug_abbrev  0x0000000000003781      0x3ca message.o
 .debug_abbrev  0x0000000000003b4b      0x238 reportbinding.o
 .debug_abbrev  0x0000000000003d83      0x42b rtc.o
 .debug_abbrev  0x00000000000041ae      0x2dd store.o
 .debug_abbrev  0x000000000000448b      0x383 uart0.o
 .debug_abbrev  0x000000000000480e      0x34d uart3.o
 .debug_abbrev  0x0000000000004b5b      0x37b wifi_config.o

.debug_line     0x0000000000000000    0x2756b
 *(.debug_line .debug_line.* .debug_line_end)
 .debug_line    0x0000000000000000      0x80a main.o
 .debug_line    0x000000000000080a     0x110c adc.o
 .debug_line    0x0000000000001916     0x41ef common.o
 .debug_line    0x0000000000005b05      0x39a debug.o
 .debug_line    0x0000000000005e9f       0x54 flash.o
 .debug_line    0x0000000000005ef3     0x2fd0 GTM900C.o
 .debug_line    0x0000000000008ec3      0x97f hydrologytask.o
 .debug_line    0x0000000000009842      0x2d3 packet.o
 .debug_line    0x0000000000009b15     0x158f rom.o
 .debug_line    0x000000000000b0a4     0x1431 Sampler.o
 .debug_line    0x000000000000c4d5      0x591 timer.o
 .debug_line    0x000000000000ca66      0xdd6 uart1.o
 .debug_line    0x000000000000d83c      0x2b5 uart_config.o
 .debug_line    0x000000000000daf1     0x13e6 blueTooth.o
 .debug_line    0x000000000000eed7      0x4ea Console.o
 .debug_line    0x000000000000f3c1     0x392a dtu.o
 .debug_line    0x0000000000012ceb     0x5450 GSM.o
 .debug_line    0x000000000001813b     0x2f4b hydrologycommand.o
 .debug_line    0x000000000001b086      0x782 led.o
 .debug_line    0x000000000001b808     0x2a8b message.o
 .debug_line    0x000000000001e293      0x3b9 reportbinding.o
 .debug_line    0x000000000001e64c     0x351c rtc.o
 .debug_line    0x0000000000021b68     0x2d4c store.o
 .debug_line    0x00000000000248b4     0x1083 uart0.o
 .debug_line    0x0000000000025937      0xd3f uart3.o
 .debug_line    0x0000000000026676      0xef5 wifi_config.o

.debug_frame    0x0000000000000000     0x3c28
 *(.debug_frame)
 .debug_frame   0x0000000000000000       0xc4 main.o
 .debug_frame   0x00000000000000c4       0x70 adc.o
 .debug_frame   0x0000000000000134      0x698 common.o
 .debug_frame   0x00000000000007cc       0x9c debug.o
 .debug_frame   0x0000000000000868      0x508 GTM900C.o
 .debug_frame   0x0000000000000d70      0x148 hydrologytask.o
 .debug_frame   0x0000000000000eb8       0x60 packet.o
 .debug_frame   0x0000000000000f18      0x220 rom.o
 .debug_frame   0x0000000000001138      0x18c Sampler.o
 .debug_frame   0x00000000000012c4      0x110 timer.o
 .debug_frame   0x00000000000013d4      0x14c uart1.o
 .debug_frame   0x0000000000001520       0x48 uart_config.o
 .debug_frame   0x0000000000001568      0x398 blueTooth.o
 .debug_frame   0x0000000000001900       0xe8 Console.o
 .debug_frame   0x00000000000019e8      0x18c dtu.o
 .debug_frame   0x0000000000001b74      0x3e8 GSM.o
 .debug_frame   0x0000000000001f5c      0x30c hydrologycommand.o
 .debug_frame   0x0000000000002268      0x1e8 led.o
 .debug_frame   0x0000000000002450      0x460 message.o
 .debug_frame   0x00000000000028b0       0x5c reportbinding.o
 .debug_frame   0x000000000000290c      0x7c4 rtc.o
 .debug_frame   0x00000000000030d0      0x630 store.o
 .debug_frame   0x0000000000003700      0x1bc uart0.o
 .debug_frame   0x00000000000038bc      0x13c uart3.o
 .debug_frame   0x00000000000039f8      0x230 wifi_config.o

.debug_str      0x0000000000000000     0x621b
 *(.debug_str)
 .debug_str     0x0000000000000000     0x1fe6 main.o
                                       0x2075 (size before relaxing)
 .debug_str     0x0000000000001fe6      0x178 adc.o
                                       0x1e1e (size before relaxing)
 .debug_str     0x000000000000215e      0x796 common.o
                                       0x25c0 (size before relaxing)
 .debug_str     0x00000000000028f4       0xad debug.o
                                        0x658 (size before relaxing)
 .debug_str     0x00000000000029a1      0x286 flash.o
                                        0x570 (size before relaxing)
 .debug_str     0x0000000000002c27      0xc21 GTM900C.o
                                       0x2ace (size before relaxing)
 .debug_str     0x0000000000003848      0x37f hydrologytask.o
                                       0x2412 (size before relaxing)
 .debug_str     0x0000000000003bc7       0x6d packet.o
                                        0x60d (size before relaxing)
 .debug_str     0x0000000000003c34      0x120 rom.o
                                       0x1e45 (size before relaxing)
 .debug_str     0x0000000000003d54      0x333 Sampler.o
                                       0x22da (size before relaxing)
 .debug_str     0x0000000000004087       0xf6 timer.o
                                       0x1e54 (size before relaxing)
 .debug_str     0x000000000000417d      0x146 uart1.o
                                       0x1e53 (size before relaxing)
 .debug_str     0x00000000000042c3       0x2d uart_config.o
                                       0x1ef7 (size before relaxing)
 .debug_str     0x00000000000042f0      0x231 blueTooth.o
                                       0x2027 (size before relaxing)
 .debug_str     0x0000000000004521       0x4f Console.o
                                       0x1e5c (size before relaxing)
 .debug_str     0x0000000000004570      0x38e dtu.o
                                       0x2417 (size before relaxing)
 .debug_str     0x00000000000048fe      0x3b6 GSM.o
                                       0x284b (size before relaxing)
 .debug_str     0x0000000000004cb4      0x38e hydrologycommand.o
                                       0x24de (size before relaxing)
 .debug_str     0x0000000000005042       0xa0 led.o
                                       0x1d5e (size before relaxing)
 .debug_str     0x00000000000050e2      0x4ac message.o
                                       0x27e6 (size before relaxing)
 .debug_str     0x000000000000558e      0x13a reportbinding.o
                                        0x6fb (size before relaxing)
 .debug_str     0x00000000000056c8      0x510 rtc.o
                                       0x2465 (size before relaxing)
 .debug_str     0x0000000000005bd8      0x1bc store.o
                                       0x2389 (size before relaxing)
 .debug_str     0x0000000000005d94      0x16b uart0.o
                                       0x1ef8 (size before relaxing)
 .debug_str     0x0000000000005eff       0xe3 uart3.o
                                       0x1dc3 (size before relaxing)
 .debug_str     0x0000000000005fe2      0x239 wifi_config.o
                                       0x2185 (size before relaxing)

.debug_loc      0x0000000000000000    0x12195
 *(.debug_loc)
 .debug_loc     0x0000000000000000       0x9e main.o
 .debug_loc     0x000000000000009e      0x742 adc.o
 .debug_loc     0x00000000000007e0     0x29e0 common.o
 .debug_loc     0x00000000000031c0      0x154 debug.o
 .debug_loc     0x0000000000003314     0x1469 GTM900C.o
 .debug_loc     0x000000000000477d      0x24e hydrologytask.o
 .debug_loc     0x00000000000049cb      0x1c9 packet.o
 .debug_loc     0x0000000000004b94      0x910 rom.o
 .debug_loc     0x00000000000054a4      0x427 Sampler.o
 .debug_loc     0x00000000000058cb       0x76 timer.o
 .debug_loc     0x0000000000005941      0x30c uart1.o
 .debug_loc     0x0000000000005c4d       0x2c uart_config.o
 .debug_loc     0x0000000000005c79      0x431 blueTooth.o
 .debug_loc     0x00000000000060aa      0x2ad Console.o
 .debug_loc     0x0000000000006357     0x1e5b dtu.o
 .debug_loc     0x00000000000081b2     0x1f23 GSM.o
 .debug_loc     0x000000000000a0d5     0x2a5a hydrologycommand.o
 .debug_loc     0x000000000000cb2f     0x1525 message.o
 .debug_loc     0x000000000000e054      0x135 reportbinding.o
 .debug_loc     0x000000000000e189     0x12cf rtc.o
 .debug_loc     0x000000000000f458     0x1e04 store.o
 .debug_loc     0x000000000001125c      0x530 uart0.o
 .debug_loc     0x000000000001178c      0x30c uart3.o
 .debug_loc     0x0000000000011a98      0x6fd wifi_config.o

.debug_macinfo
 *(.debug_macinfo)

.debug_weaknames
 *(.debug_weaknames)

.debug_funcnames
 *(.debug_funcnames)

.debug_typenames
 *(.debug_typenames)

.debug_varnames
 *(.debug_varnames)

.debug_pubtypes
 *(.debug_pubtypes)

.debug_ranges   0x0000000000000000      0x478
 *(.debug_ranges)
 .debug_ranges  0x0000000000000000       0x30 adc.o
 .debug_ranges  0x0000000000000030       0xa8 common.o
 .debug_ranges  0x00000000000000d8       0x20 GTM900C.o
 .debug_ranges  0x00000000000000f8       0x18 rom.o
 .debug_ranges  0x0000000000000110       0x48 Sampler.o
 .debug_ranges  0x0000000000000158       0x18 uart1.o
 .debug_ranges  0x0000000000000170       0x30 blueTooth.o
 .debug_ranges  0x00000000000001a0       0xc0 dtu.o
 .debug_ranges  0x0000000000000260       0xc0 GSM.o
 .debug_ranges  0x0000000000000320       0x18 rtc.o
 .debug_ranges  0x0000000000000338      0x110 store.o
 .debug_ranges  0x0000000000000448       0x18 uart0.o
 .debug_ranges  0x0000000000000460       0x18 uart3.o

.debug_macro
 *(.debug_macro)

/DISCARD/
 *(.note.GNU-stack)
                0x0000000000000700                PROVIDE (ADC12CTL0, 0x700)
                [!provide]                        PROVIDE (ADC12CTL0_L, 0x700)
                [!provide]                        PROVIDE (ADC12CTL0_H, 0x701)
                0x0000000000000702                PROVIDE (ADC12CTL1, 0x702)
                [!provide]                        PROVIDE (ADC12CTL1_L, 0x702)
                [!provide]                        PROVIDE (ADC12CTL1_H, 0x703)
                [!provide]                        PROVIDE (ADC12CTL2, 0x704)
                [!provide]                        PROVIDE (ADC12CTL2_L, 0x704)
                [!provide]                        PROVIDE (ADC12CTL2_H, 0x705)
                [!provide]                        PROVIDE (ADC12IFG, 0x70a)
                [!provide]                        PROVIDE (ADC12IFG_L, 0x70a)
                [!provide]                        PROVIDE (ADC12IFG_H, 0x70b)
                [!provide]                        PROVIDE (ADC12IE, 0x70c)
                [!provide]                        PROVIDE (ADC12IE_L, 0x70c)
                [!provide]                        PROVIDE (ADC12IE_H, 0x70d)
                [!provide]                        PROVIDE (ADC12IV, 0x70e)
                [!provide]                        PROVIDE (ADC12IV_L, 0x70e)
                [!provide]                        PROVIDE (ADC12IV_H, 0x70f)
                0x0000000000000720                PROVIDE (ADC12MEM0, 0x720)
                [!provide]                        PROVIDE (ADC12MEM0_L, 0x720)
                [!provide]                        PROVIDE (ADC12MEM0_H, 0x721)
                0x0000000000000722                PROVIDE (ADC12MEM1, 0x722)
                [!provide]                        PROVIDE (ADC12MEM1_L, 0x722)
                [!provide]                        PROVIDE (ADC12MEM1_H, 0x723)
                0x0000000000000724                PROVIDE (ADC12MEM2, 0x724)
                [!provide]                        PROVIDE (ADC12MEM2_L, 0x724)
                [!provide]                        PROVIDE (ADC12MEM2_H, 0x725)
                0x0000000000000726                PROVIDE (ADC12MEM3, 0x726)
                [!provide]                        PROVIDE (ADC12MEM3_L, 0x726)
                [!provide]                        PROVIDE (ADC12MEM3_H, 0x727)
                0x0000000000000728                PROVIDE (ADC12MEM4, 0x728)
                [!provide]                        PROVIDE (ADC12MEM4_L, 0x728)
                [!provide]                        PROVIDE (ADC12MEM4_H, 0x729)
                0x000000000000072a                PROVIDE (ADC12MEM5, 0x72a)
                [!provide]                        PROVIDE (ADC12MEM5_L, 0x72a)
                [!provide]                        PROVIDE (ADC12MEM5_H, 0x72b)
                0x000000000000072c                PROVIDE (ADC12MEM6, 0x72c)
                [!provide]                        PROVIDE (ADC12MEM6_L, 0x72c)
                [!provide]                        PROVIDE (ADC12MEM6_H, 0x72d)
                0x000000000000072e                PROVIDE (ADC12MEM7, 0x72e)
                [!provide]                        PROVIDE (ADC12MEM7_L, 0x72e)
                [!provide]                        PROVIDE (ADC12MEM7_H, 0x72f)
                0x0000000000000730                PROVIDE (ADC12MEM8, 0x730)
                [!provide]                        PROVIDE (ADC12MEM8_L, 0x730)
                [!provide]                        PROVIDE (ADC12MEM8_H, 0x731)
                0x0000000000000732                PROVIDE (ADC12MEM9, 0x732)
                [!provide]                        PROVIDE (ADC12MEM9_L, 0x732)
                [!provide]                        PROVIDE (ADC12MEM9_H, 0x733)
                0x0000000000000734                PROVIDE (ADC12MEM10, 0x734)
                [!provide]                        PROVIDE (ADC12MEM10_L, 0x734)
                [!provide]                        PROVIDE (ADC12MEM10_H, 0x735)
                0x0000000000000736                PROVIDE (ADC12MEM11, 0x736)
                [!provide]                        PROVIDE (ADC12MEM11_L, 0x736)
                [!provide]                        PROVIDE (ADC12MEM11_H, 0x737)
                0x0000000000000738                PROVIDE (ADC12MEM12, 0x738)
                [!provide]                        PROVIDE (ADC12MEM12_L, 0x738)
                [!provide]                        PROVIDE (ADC12MEM12_H, 0x739)
                0x000000000000073a                PROVIDE (ADC12MEM13, 0x73a)
                [!provide]                        PROVIDE (ADC12MEM13_L, 0x73a)
                [!provide]                        PROVIDE (ADC12MEM13_H, 0x73b)
                0x000000000000073c                PROVIDE (ADC12MEM14, 0x73c)
                [!provide]                        PROVIDE (ADC12MEM14_L, 0x73c)
                [!provide]                        PROVIDE (ADC12MEM14_H, 0x73d)
                0x000000000000073e                PROVIDE (ADC12MEM15, 0x73e)
                [!provide]                        PROVIDE (ADC12MEM15_L, 0x73e)
                [!provide]                        PROVIDE (ADC12MEM15_H, 0x73f)
                0x0000000000000710                PROVIDE (ADC12MCTL0, 0x710)
                0x0000000000000711                PROVIDE (ADC12MCTL1, 0x711)
                0x0000000000000712                PROVIDE (ADC12MCTL2, 0x712)
                0x0000000000000713                PROVIDE (ADC12MCTL3, 0x713)
                0x0000000000000714                PROVIDE (ADC12MCTL4, 0x714)
                0x0000000000000715                PROVIDE (ADC12MCTL5, 0x715)
                0x0000000000000716                PROVIDE (ADC12MCTL6, 0x716)
                0x0000000000000717                PROVIDE (ADC12MCTL7, 0x717)
                0x0000000000000718                PROVIDE (ADC12MCTL8, 0x718)
                0x0000000000000719                PROVIDE (ADC12MCTL9, 0x719)
                0x000000000000071a                PROVIDE (ADC12MCTL10, 0x71a)
                0x000000000000071b                PROVIDE (ADC12MCTL11, 0x71b)
                0x000000000000071c                PROVIDE (ADC12MCTL12, 0x71c)
                0x000000000000071d                PROVIDE (ADC12MCTL13, 0x71d)
                0x000000000000071e                PROVIDE (ADC12MCTL14, 0x71e)
                0x000000000000071f                PROVIDE (ADC12MCTL15, 0x71f)
                [!provide]                        PROVIDE (CRCDI, 0x150)
                [!provide]                        PROVIDE (CRCDI_L, 0x150)
                [!provide]                        PROVIDE (CRCDI_H, 0x151)
                [!provide]                        PROVIDE (CRCDIRB, 0x152)
                [!provide]                        PROVIDE (CRCDIRB_L, 0x152)
                [!provide]                        PROVIDE (CRCDIRB_H, 0x153)
                [!provide]                        PROVIDE (CRCINIRES, 0x154)
                [!provide]                        PROVIDE (CRCINIRES_L, 0x154)
                [!provide]                        PROVIDE (CRCINIRES_H, 0x155)
                [!provide]                        PROVIDE (CRCRESR, 0x156)
                [!provide]                        PROVIDE (CRCRESR_L, 0x156)
                [!provide]                        PROVIDE (CRCRESR_H, 0x157)
                [!provide]                        PROVIDE (DMACTL0, 0x500)
                [!provide]                        PROVIDE (DMACTL1, 0x502)
                [!provide]                        PROVIDE (DMACTL2, 0x504)
                [!provide]                        PROVIDE (DMACTL3, 0x506)
                [!provide]                        PROVIDE (DMACTL4, 0x508)
                [!provide]                        PROVIDE (DMAIV, 0x50e)
                [!provide]                        PROVIDE (DMA0CTL, 0x510)
                [!provide]                        PROVIDE (DMA0SA, 0x512)
                [!provide]                        PROVIDE (DMA0SAL, 0x512)
                [!provide]                        PROVIDE (DMA0DA, 0x516)
                [!provide]                        PROVIDE (DMA0DAL, 0x516)
                [!provide]                        PROVIDE (DMA0SZ, 0x51a)
                [!provide]                        PROVIDE (DMA1CTL, 0x520)
                [!provide]                        PROVIDE (DMA1SA, 0x522)
                [!provide]                        PROVIDE (DMA1SAL, 0x522)
                [!provide]                        PROVIDE (DMA1DA, 0x526)
                [!provide]                        PROVIDE (DMA1DAL, 0x526)
                [!provide]                        PROVIDE (DMA1SZ, 0x52a)
                [!provide]                        PROVIDE (DMA2CTL, 0x530)
                [!provide]                        PROVIDE (DMA2SA, 0x532)
                [!provide]                        PROVIDE (DMA2SAL, 0x532)
                [!provide]                        PROVIDE (DMA2DA, 0x536)
                [!provide]                        PROVIDE (DMA2DAL, 0x536)
                [!provide]                        PROVIDE (DMA2SZ, 0x53a)
                [!provide]                        PROVIDE (FCTL1, 0x140)
                [!provide]                        PROVIDE (FCTL1_L, 0x140)
                [!provide]                        PROVIDE (FCTL1_H, 0x141)
                [!provide]                        PROVIDE (FCTL3, 0x144)
                [!provide]                        PROVIDE (FCTL3_L, 0x144)
                [!provide]                        PROVIDE (FCTL3_H, 0x145)
                [!provide]                        PROVIDE (FCTL4, 0x146)
                [!provide]                        PROVIDE (FCTL4_L, 0x146)
                [!provide]                        PROVIDE (FCTL4_H, 0x147)
                [!provide]                        PROVIDE (MPY, 0x4c0)
                [!provide]                        PROVIDE (MPY_L, 0x4c0)
                [!provide]                        PROVIDE (MPY_H, 0x4c1)
                [!provide]                        PROVIDE (MPYS, 0x4c2)
                [!provide]                        PROVIDE (MPYS_L, 0x4c2)
                [!provide]                        PROVIDE (MPYS_H, 0x4c3)
                [!provide]                        PROVIDE (MAC, 0x4c4)
                [!provide]                        PROVIDE (MAC_L, 0x4c4)
                [!provide]                        PROVIDE (MAC_H, 0x4c5)
                [!provide]                        PROVIDE (MACS, 0x4c6)
                [!provide]                        PROVIDE (MACS_L, 0x4c6)
                [!provide]                        PROVIDE (MACS_H, 0x4c7)
                [!provide]                        PROVIDE (OP2, 0x4c8)
                [!provide]                        PROVIDE (OP2_L, 0x4c8)
                [!provide]                        PROVIDE (OP2_H, 0x4c9)
                [!provide]                        PROVIDE (RESLO, 0x4ca)
                [!provide]                        PROVIDE (RESLO_L, 0x4ca)
                [!provide]                        PROVIDE (RESLO_H, 0x4cb)
                [!provide]                        PROVIDE (RESHI, 0x4cc)
                [!provide]                        PROVIDE (RESHI_L, 0x4cc)
                [!provide]                        PROVIDE (RESHI_H, 0x4cd)
                [!provide]                        PROVIDE (SUMEXT, 0x4ce)
                [!provide]                        PROVIDE (SUMEXT_L, 0x4ce)
                [!provide]                        PROVIDE (SUMEXT_H, 0x4cf)
                [!provide]                        PROVIDE (MPY32L, 0x4d0)
                [!provide]                        PROVIDE (MPY32L_L, 0x4d0)
                [!provide]                        PROVIDE (MPY32L_H, 0x4d1)
                [!provide]                        PROVIDE (MPY32H, 0x4d2)
                [!provide]                        PROVIDE (MPY32H_L, 0x4d2)
                [!provide]                        PROVIDE (MPY32H_H, 0x4d3)
                [!provide]                        PROVIDE (MPYS32L, 0x4d4)
                [!provide]                        PROVIDE (MPYS32L_L, 0x4d4)
                [!provide]                        PROVIDE (MPYS32L_H, 0x4d5)
                [!provide]                        PROVIDE (MPYS32H, 0x4d6)
                [!provide]                        PROVIDE (MPYS32H_L, 0x4d6)
                [!provide]                        PROVIDE (MPYS32H_H, 0x4d7)
                [!provide]                        PROVIDE (MAC32L, 0x4d8)
                [!provide]                        PROVIDE (MAC32L_L, 0x4d8)
                [!provide]                        PROVIDE (MAC32L_H, 0x4d9)
                [!provide]                        PROVIDE (MAC32H, 0x4da)
                [!provide]                        PROVIDE (MAC32H_L, 0x4da)
                [!provide]                        PROVIDE (MAC32H_H, 0x4db)
                [!provide]                        PROVIDE (MACS32L, 0x4dc)
                [!provide]                        PROVIDE (MACS32L_L, 0x4dc)
                [!provide]                        PROVIDE (MACS32L_H, 0x4dd)
                [!provide]                        PROVIDE (MACS32H, 0x4de)
                [!provide]                        PROVIDE (MACS32H_L, 0x4de)
                [!provide]                        PROVIDE (MACS32H_H, 0x4df)
                [!provide]                        PROVIDE (OP2L, 0x4e0)
                [!provide]                        PROVIDE (OP2L_L, 0x4e0)
                [!provide]                        PROVIDE (OP2L_H, 0x4e1)
                [!provide]                        PROVIDE (OP2H, 0x4e2)
                [!provide]                        PROVIDE (OP2H_L, 0x4e2)
                [!provide]                        PROVIDE (OP2H_H, 0x4e3)
                [!provide]                        PROVIDE (RES0, 0x4e4)
                [!provide]                        PROVIDE (RES0_L, 0x4e4)
                [!provide]                        PROVIDE (RES0_H, 0x4e5)
                [!provide]                        PROVIDE (RES1, 0x4e6)
                [!provide]                        PROVIDE (RES1_L, 0x4e6)
                [!provide]                        PROVIDE (RES1_H, 0x4e7)
                [!provide]                        PROVIDE (RES2, 0x4e8)
                [!provide]                        PROVIDE (RES2_L, 0x4e8)
                [!provide]                        PROVIDE (RES2_H, 0x4e9)
                [!provide]                        PROVIDE (RES3, 0x4ea)
                [!provide]                        PROVIDE (RES3_L, 0x4ea)
                [!provide]                        PROVIDE (RES3_H, 0x4eb)
                [!provide]                        PROVIDE (MPY32CTL0, 0x4ec)
                [!provide]                        PROVIDE (MPY32CTL0_L, 0x4ec)
                [!provide]                        PROVIDE (MPY32CTL0_H, 0x4ed)
                [!provide]                        PROVIDE (PAIN, 0x200)
                0x0000000000000200                PROVIDE (PAIN_L, 0x200)
                0x0000000000000201                PROVIDE (PAIN_H, 0x201)
                [!provide]                        PROVIDE (PAOUT, 0x202)
                0x0000000000000202                PROVIDE (PAOUT_L, 0x202)
                [!provide]                        PROVIDE (PAOUT_H, 0x203)
                [!provide]                        PROVIDE (PADIR, 0x204)
                0x0000000000000204                PROVIDE (PADIR_L, 0x204)
                [!provide]                        PROVIDE (PADIR_H, 0x205)
                [!provide]                        PROVIDE (PAREN, 0x206)
                [!provide]                        PROVIDE (PAREN_L, 0x206)
                [!provide]                        PROVIDE (PAREN_H, 0x207)
                [!provide]                        PROVIDE (PADS, 0x208)
                [!provide]                        PROVIDE (PADS_L, 0x208)
                [!provide]                        PROVIDE (PADS_H, 0x209)
                [!provide]                        PROVIDE (PASEL, 0x20a)
                0x000000000000020a                PROVIDE (PASEL_L, 0x20a)
                [!provide]                        PROVIDE (PASEL_H, 0x20b)
                [!provide]                        PROVIDE (PAIES, 0x218)
                0x0000000000000218                PROVIDE (PAIES_L, 0x218)
                [!provide]                        PROVIDE (PAIES_H, 0x219)
                [!provide]                        PROVIDE (PAIE, 0x21a)
                0x000000000000021a                PROVIDE (PAIE_L, 0x21a)
                [!provide]                        PROVIDE (PAIE_H, 0x21b)
                [!provide]                        PROVIDE (PAIFG, 0x21c)
                0x000000000000021c                PROVIDE (PAIFG_L, 0x21c)
                [!provide]                        PROVIDE (PAIFG_H, 0x21d)
                [!provide]                        PROVIDE (P1IV, 0x20e)
                [!provide]                        PROVIDE (P2IV, 0x21e)
                [!provide]                        PROVIDE (PBIN, 0x220)
                0x0000000000000220                PROVIDE (PBIN_L, 0x220)
                0x0000000000000221                PROVIDE (PBIN_H, 0x221)
                [!provide]                        PROVIDE (PBOUT, 0x222)
                0x0000000000000222                PROVIDE (PBOUT_L, 0x222)
                0x0000000000000223                PROVIDE (PBOUT_H, 0x223)
                [!provide]                        PROVIDE (PBDIR, 0x224)
                0x0000000000000224                PROVIDE (PBDIR_L, 0x224)
                0x0000000000000225                PROVIDE (PBDIR_H, 0x225)
                [!provide]                        PROVIDE (PBREN, 0x226)
                [!provide]                        PROVIDE (PBREN_L, 0x226)
                [!provide]                        PROVIDE (PBREN_H, 0x227)
                [!provide]                        PROVIDE (PBDS, 0x228)
                [!provide]                        PROVIDE (PBDS_L, 0x228)
                [!provide]                        PROVIDE (PBDS_H, 0x229)
                [!provide]                        PROVIDE (PBSEL, 0x22a)
                0x000000000000022a                PROVIDE (PBSEL_L, 0x22a)
                0x000000000000022b                PROVIDE (PBSEL_H, 0x22b)
                [!provide]                        PROVIDE (PCIN, 0x240)
                [!provide]                        PROVIDE (PCIN_L, 0x240)
                [!provide]                        PROVIDE (PCIN_H, 0x241)
                [!provide]                        PROVIDE (PCOUT, 0x242)
                0x0000000000000242                PROVIDE (PCOUT_L, 0x242)
                [!provide]                        PROVIDE (PCOUT_H, 0x243)
                [!provide]                        PROVIDE (PCDIR, 0x244)
                0x0000000000000244                PROVIDE (PCDIR_L, 0x244)
                [!provide]                        PROVIDE (PCDIR_H, 0x245)
                [!provide]                        PROVIDE (PCREN, 0x246)
                [!provide]                        PROVIDE (PCREN_L, 0x246)
                [!provide]                        PROVIDE (PCREN_H, 0x247)
                [!provide]                        PROVIDE (PCDS, 0x248)
                [!provide]                        PROVIDE (PCDS_L, 0x248)
                [!provide]                        PROVIDE (PCDS_H, 0x249)
                [!provide]                        PROVIDE (PCSEL, 0x24a)
                0x000000000000024a                PROVIDE (PCSEL_L, 0x24a)
                0x000000000000024b                PROVIDE (PCSEL_H, 0x24b)
                [!provide]                        PROVIDE (PDIN, 0x260)
                [!provide]                        PROVIDE (PDIN_L, 0x260)
                0x0000000000000261                PROVIDE (PDIN_H, 0x261)
                [!provide]                        PROVIDE (PDOUT, 0x262)
                0x0000000000000262                PROVIDE (PDOUT_L, 0x262)
                [!provide]                        PROVIDE (PDOUT_H, 0x263)
                [!provide]                        PROVIDE (PDDIR, 0x264)
                0x0000000000000264                PROVIDE (PDDIR_L, 0x264)
                [!provide]                        PROVIDE (PDDIR_H, 0x265)
                [!provide]                        PROVIDE (PDREN, 0x266)
                [!provide]                        PROVIDE (PDREN_L, 0x266)
                [!provide]                        PROVIDE (PDREN_H, 0x267)
                [!provide]                        PROVIDE (PDDS, 0x268)
                [!provide]                        PROVIDE (PDDS_L, 0x268)
                [!provide]                        PROVIDE (PDDS_H, 0x269)
                [!provide]                        PROVIDE (PDSEL, 0x26a)
                0x000000000000026a                PROVIDE (PDSEL_L, 0x26a)
                [!provide]                        PROVIDE (PDSEL_H, 0x26b)
                [!provide]                        PROVIDE (PEIN, 0x280)
                0x0000000000000280                PROVIDE (PEIN_L, 0x280)
                [!provide]                        PROVIDE (PEIN_H, 0x281)
                [!provide]                        PROVIDE (PEOUT, 0x282)
                0x0000000000000282                PROVIDE (PEOUT_L, 0x282)
                0x0000000000000283                PROVIDE (PEOUT_H, 0x283)
                [!provide]                        PROVIDE (PEDIR, 0x284)
                0x0000000000000284                PROVIDE (PEDIR_L, 0x284)
                0x0000000000000285                PROVIDE (PEDIR_H, 0x285)
                [!provide]                        PROVIDE (PEREN, 0x286)
                [!provide]                        PROVIDE (PEREN_L, 0x286)
                [!provide]                        PROVIDE (PEREN_H, 0x287)
                [!provide]                        PROVIDE (PEDS, 0x288)
                [!provide]                        PROVIDE (PEDS_L, 0x288)
                [!provide]                        PROVIDE (PEDS_H, 0x289)
                [!provide]                        PROVIDE (PESEL, 0x28a)
                [!provide]                        PROVIDE (PESEL_L, 0x28a)
                0x000000000000028b                PROVIDE (PESEL_H, 0x28b)
                [!provide]                        PROVIDE (PFIN, 0x2a0)
                [!provide]                        PROVIDE (PFIN_L, 0x2a0)
                [!provide]                        PROVIDE (PFIN_H, 0x2a1)
                [!provide]                        PROVIDE (PFOUT, 0x2a2)
                0x00000000000002a2                PROVIDE (PFOUT_L, 0x2a2)
                [!provide]                        PROVIDE (PFOUT_H, 0x2a3)
                [!provide]                        PROVIDE (PFDIR, 0x2a4)
                0x00000000000002a4                PROVIDE (PFDIR_L, 0x2a4)
                [!provide]                        PROVIDE (PFDIR_H, 0x2a5)
                [!provide]                        PROVIDE (PFREN, 0x2a6)
                [!provide]                        PROVIDE (PFREN_L, 0x2a6)
                [!provide]                        PROVIDE (PFREN_H, 0x2a7)
                [!provide]                        PROVIDE (PFDS, 0x2a8)
                [!provide]                        PROVIDE (PFDS_L, 0x2a8)
                [!provide]                        PROVIDE (PFDS_H, 0x2a9)
                [!provide]                        PROVIDE (PFSEL, 0x2aa)
                [!provide]                        PROVIDE (PFSEL_L, 0x2aa)
                [!provide]                        PROVIDE (PFSEL_H, 0x2ab)
                [!provide]                        PROVIDE (PJIN, 0x320)
                [!provide]                        PROVIDE (PJIN_L, 0x320)
                [!provide]                        PROVIDE (PJIN_H, 0x321)
                [!provide]                        PROVIDE (PJOUT, 0x322)
                [!provide]                        PROVIDE (PJOUT_L, 0x322)
                [!provide]                        PROVIDE (PJOUT_H, 0x323)
                [!provide]                        PROVIDE (PJDIR, 0x324)
                [!provide]                        PROVIDE (PJDIR_L, 0x324)
                [!provide]                        PROVIDE (PJDIR_H, 0x325)
                [!provide]                        PROVIDE (PJREN, 0x326)
                [!provide]                        PROVIDE (PJREN_L, 0x326)
                [!provide]                        PROVIDE (PJREN_H, 0x327)
                [!provide]                        PROVIDE (PJDS, 0x328)
                [!provide]                        PROVIDE (PJDS_L, 0x328)
                [!provide]                        PROVIDE (PJDS_H, 0x329)
                [!provide]                        PROVIDE (PMMCTL0, 0x120)
                0x0000000000000120                PROVIDE (PMMCTL0_L, 0x120)
                0x0000000000000121                PROVIDE (PMMCTL0_H, 0x121)
                [!provide]                        PROVIDE (PMMCTL1, 0x122)
                [!provide]                        PROVIDE (PMMCTL1_L, 0x122)
                [!provide]                        PROVIDE (PMMCTL1_H, 0x123)
                0x0000000000000124                PROVIDE (SVSMHCTL, 0x124)
                [!provide]                        PROVIDE (SVSMHCTL_L, 0x124)
                [!provide]                        PROVIDE (SVSMHCTL_H, 0x125)
                0x0000000000000126                PROVIDE (SVSMLCTL, 0x126)
                [!provide]                        PROVIDE (SVSMLCTL_L, 0x126)
                [!provide]                        PROVIDE (SVSMLCTL_H, 0x127)
                [!provide]                        PROVIDE (SVSMIO, 0x128)
                [!provide]                        PROVIDE (SVSMIO_L, 0x128)
                [!provide]                        PROVIDE (SVSMIO_H, 0x129)
                0x000000000000012c                PROVIDE (PMMIFG, 0x12c)
                [!provide]                        PROVIDE (PMMIFG_L, 0x12c)
                [!provide]                        PROVIDE (PMMIFG_H, 0x12d)
                [!provide]                        PROVIDE (PMMRIE, 0x12e)
                [!provide]                        PROVIDE (PMMRIE_L, 0x12e)
                [!provide]                        PROVIDE (PMMRIE_H, 0x12f)
                [!provide]                        PROVIDE (PM5CTL0, 0x130)
                [!provide]                        PROVIDE (PM5CTL0_L, 0x130)
                [!provide]                        PROVIDE (PM5CTL0_H, 0x131)
                [!provide]                        PROVIDE (RCCTL0, 0x158)
                [!provide]                        PROVIDE (RCCTL0_L, 0x158)
                [!provide]                        PROVIDE (RCCTL0_H, 0x159)
                [!provide]                        PROVIDE (REFCTL0, 0x1b0)
                [!provide]                        PROVIDE (REFCTL0_L, 0x1b0)
                [!provide]                        PROVIDE (REFCTL0_H, 0x1b1)
                [!provide]                        PROVIDE (RTCCTL01, 0x4a0)
                [!provide]                        PROVIDE (RTCCTL01_L, 0x4a0)
                [!provide]                        PROVIDE (RTCCTL01_H, 0x4a1)
                [!provide]                        PROVIDE (RTCCTL23, 0x4a2)
                [!provide]                        PROVIDE (RTCCTL23_L, 0x4a2)
                [!provide]                        PROVIDE (RTCCTL23_H, 0x4a3)
                [!provide]                        PROVIDE (RTCPS0CTL, 0x4a8)
                [!provide]                        PROVIDE (RTCPS0CTL_L, 0x4a8)
                [!provide]                        PROVIDE (RTCPS0CTL_H, 0x4a9)
                [!provide]                        PROVIDE (RTCPS1CTL, 0x4aa)
                [!provide]                        PROVIDE (RTCPS1CTL_L, 0x4aa)
                [!provide]                        PROVIDE (RTCPS1CTL_H, 0x4ab)
                [!provide]                        PROVIDE (RTCPS, 0x4ac)
                [!provide]                        PROVIDE (RTCPS_L, 0x4ac)
                [!provide]                        PROVIDE (RTCPS_H, 0x4ad)
                [!provide]                        PROVIDE (RTCIV, 0x4ae)
                [!provide]                        PROVIDE (RTCTIM0, 0x4b0)
                [!provide]                        PROVIDE (RTCTIM0_L, 0x4b0)
                [!provide]                        PROVIDE (RTCTIM0_H, 0x4b1)
                [!provide]                        PROVIDE (RTCTIM1, 0x4b2)
                [!provide]                        PROVIDE (RTCTIM1_L, 0x4b2)
                [!provide]                        PROVIDE (RTCTIM1_H, 0x4b3)
                [!provide]                        PROVIDE (RTCDATE, 0x4b4)
                [!provide]                        PROVIDE (RTCDATE_L, 0x4b4)
                [!provide]                        PROVIDE (RTCDATE_H, 0x4b5)
                [!provide]                        PROVIDE (RTCYEAR, 0x4b6)
                [!provide]                        PROVIDE (RTCYEAR_L, 0x4b6)
                [!provide]                        PROVIDE (RTCYEAR_H, 0x4b7)
                [!provide]                        PROVIDE (RTCAMINHR, 0x4b8)
                [!provide]                        PROVIDE (RTCAMINHR_L, 0x4b8)
                [!provide]                        PROVIDE (RTCAMINHR_H, 0x4b9)
                [!provide]                        PROVIDE (RTCADOWDAY, 0x4ba)
                [!provide]                        PROVIDE (RTCADOWDAY_L, 0x4ba)
                [!provide]                        PROVIDE (RTCADOWDAY_H, 0x4bb)
                0x0000000000000100                PROVIDE (SFRIE1, 0x100)
                [!provide]                        PROVIDE (SFRIE1_L, 0x100)
                [!provide]                        PROVIDE (SFRIE1_H, 0x101)
                0x0000000000000102                PROVIDE (SFRIFG1, 0x102)
                [!provide]                        PROVIDE (SFRIFG1_L, 0x102)
                [!provide]                        PROVIDE (SFRIFG1_H, 0x103)
                [!provide]                        PROVIDE (SFRRPCR, 0x104)
                [!provide]                        PROVIDE (SFRRPCR_L, 0x104)
                [!provide]                        PROVIDE (SFRRPCR_H, 0x105)
                [!provide]                        PROVIDE (SYSCTL, 0x180)
                [!provide]                        PROVIDE (SYSCTL_L, 0x180)
                [!provide]                        PROVIDE (SYSCTL_H, 0x181)
                [!provide]                        PROVIDE (SYSBSLC, 0x182)
                [!provide]                        PROVIDE (SYSBSLC_L, 0x182)
                [!provide]                        PROVIDE (SYSBSLC_H, 0x183)
                [!provide]                        PROVIDE (SYSJMBC, 0x186)
                [!provide]                        PROVIDE (SYSJMBC_L, 0x186)
                [!provide]                        PROVIDE (SYSJMBC_H, 0x187)
                [!provide]                        PROVIDE (SYSJMBI0, 0x188)
                [!provide]                        PROVIDE (SYSJMBI0_L, 0x188)
                [!provide]                        PROVIDE (SYSJMBI0_H, 0x189)
                [!provide]                        PROVIDE (SYSJMBI1, 0x18a)
                [!provide]                        PROVIDE (SYSJMBI1_L, 0x18a)
                [!provide]                        PROVIDE (SYSJMBI1_H, 0x18b)
                [!provide]                        PROVIDE (SYSJMBO0, 0x18c)
                [!provide]                        PROVIDE (SYSJMBO0_L, 0x18c)
                [!provide]                        PROVIDE (SYSJMBO0_H, 0x18d)
                [!provide]                        PROVIDE (SYSJMBO1, 0x18e)
                [!provide]                        PROVIDE (SYSJMBO1_L, 0x18e)
                [!provide]                        PROVIDE (SYSJMBO1_H, 0x18f)
                [!provide]                        PROVIDE (SYSBERRIV, 0x198)
                [!provide]                        PROVIDE (SYSBERRIV_L, 0x198)
                [!provide]                        PROVIDE (SYSBERRIV_H, 0x199)
                [!provide]                        PROVIDE (SYSUNIV, 0x19a)
                [!provide]                        PROVIDE (SYSUNIV_L, 0x19a)
                [!provide]                        PROVIDE (SYSUNIV_H, 0x19b)
                [!provide]                        PROVIDE (SYSSNIV, 0x19c)
                [!provide]                        PROVIDE (SYSSNIV_L, 0x19c)
                [!provide]                        PROVIDE (SYSSNIV_H, 0x19d)
                [!provide]                        PROVIDE (SYSRSTIV, 0x19e)
                [!provide]                        PROVIDE (SYSRSTIV_L, 0x19e)
                [!provide]                        PROVIDE (SYSRSTIV_H, 0x19f)
                0x0000000000000340                PROVIDE (TA0CTL, 0x340)
                0x0000000000000342                PROVIDE (TA0CCTL0, 0x342)
                [!provide]                        PROVIDE (TA0CCTL1, 0x344)
                [!provide]                        PROVIDE (TA0CCTL2, 0x346)
                [!provide]                        PROVIDE (TA0CCTL3, 0x348)
                [!provide]                        PROVIDE (TA0CCTL4, 0x34a)
                [!provide]                        PROVIDE (TA0R, 0x350)
                0x0000000000000352                PROVIDE (TA0CCR0, 0x352)
                [!provide]                        PROVIDE (TA0CCR1, 0x354)
                [!provide]                        PROVIDE (TA0CCR2, 0x356)
                [!provide]                        PROVIDE (TA0CCR3, 0x358)
                [!provide]                        PROVIDE (TA0CCR4, 0x35a)
                [!provide]                        PROVIDE (TA0IV, 0x36e)
                [!provide]                        PROVIDE (TA0EX0, 0x360)
                0x0000000000000380                PROVIDE (TA1CTL, 0x380)
                0x0000000000000382                PROVIDE (TA1CCTL0, 0x382)
                [!provide]                        PROVIDE (TA1CCTL1, 0x384)
                [!provide]                        PROVIDE (TA1CCTL2, 0x386)
                [!provide]                        PROVIDE (TA1R, 0x390)
                0x0000000000000392                PROVIDE (TA1CCR0, 0x392)
                [!provide]                        PROVIDE (TA1CCR1, 0x394)
                [!provide]                        PROVIDE (TA1CCR2, 0x396)
                [!provide]                        PROVIDE (TA1IV, 0x3ae)
                [!provide]                        PROVIDE (TA1EX0, 0x3a0)
                0x00000000000003c0                PROVIDE (TB0CTL, 0x3c0)
                [!provide]                        PROVIDE (TB0CCTL0, 0x3c2)
                0x00000000000003c4                PROVIDE (TB0CCTL1, 0x3c4)
                0x00000000000003c6                PROVIDE (TB0CCTL2, 0x3c6)
                [!provide]                        PROVIDE (TB0CCTL3, 0x3c8)
                [!provide]                        PROVIDE (TB0CCTL4, 0x3ca)
                [!provide]                        PROVIDE (TB0CCTL5, 0x3cc)
                [!provide]                        PROVIDE (TB0CCTL6, 0x3ce)
                [!provide]                        PROVIDE (TB0R, 0x3d0)
                [!provide]                        PROVIDE (TB0CCR0, 0x3d2)
                0x00000000000003d4                PROVIDE (TB0CCR1, 0x3d4)
                0x00000000000003d6                PROVIDE (TB0CCR2, 0x3d6)
                [!provide]                        PROVIDE (TB0CCR3, 0x3d8)
                [!provide]                        PROVIDE (TB0CCR4, 0x3da)
                [!provide]                        PROVIDE (TB0CCR5, 0x3dc)
                [!provide]                        PROVIDE (TB0CCR6, 0x3de)
                [!provide]                        PROVIDE (TB0EX0, 0x3e0)
                0x00000000000003ee                PROVIDE (TB0IV, 0x3ee)
                [!provide]                        PROVIDE (UCSCTL0, 0x160)
                [!provide]                        PROVIDE (UCSCTL0_L, 0x160)
                [!provide]                        PROVIDE (UCSCTL0_H, 0x161)
                [!provide]                        PROVIDE (UCSCTL1, 0x162)
                [!provide]                        PROVIDE (UCSCTL1_L, 0x162)
                [!provide]                        PROVIDE (UCSCTL1_H, 0x163)
                [!provide]                        PROVIDE (UCSCTL2, 0x164)
                [!provide]                        PROVIDE (UCSCTL2_L, 0x164)
                [!provide]                        PROVIDE (UCSCTL2_H, 0x165)
                [!provide]                        PROVIDE (UCSCTL3, 0x166)
                [!provide]                        PROVIDE (UCSCTL3_L, 0x166)
                [!provide]                        PROVIDE (UCSCTL3_H, 0x167)
                0x0000000000000168                PROVIDE (UCSCTL4, 0x168)
                [!provide]                        PROVIDE (UCSCTL4_L, 0x168)
                [!provide]                        PROVIDE (UCSCTL4_H, 0x169)
                0x000000000000016a                PROVIDE (UCSCTL5, 0x16a)
                [!provide]                        PROVIDE (UCSCTL5_L, 0x16a)
                [!provide]                        PROVIDE (UCSCTL5_H, 0x16b)
                0x000000000000016c                PROVIDE (UCSCTL6, 0x16c)
                [!provide]                        PROVIDE (UCSCTL6_L, 0x16c)
                [!provide]                        PROVIDE (UCSCTL6_H, 0x16d)
                0x000000000000016e                PROVIDE (UCSCTL7, 0x16e)
                [!provide]                        PROVIDE (UCSCTL7_L, 0x16e)
                [!provide]                        PROVIDE (UCSCTL7_H, 0x16f)
                [!provide]                        PROVIDE (UCSCTL8, 0x170)
                [!provide]                        PROVIDE (UCSCTL8_L, 0x170)
                [!provide]                        PROVIDE (UCSCTL8_H, 0x171)
                [!provide]                        PROVIDE (UCA0CTLW0, 0x5c0)
                0x00000000000005c0                PROVIDE (UCA0CTLW0_L, 0x5c0)
                [!provide]                        PROVIDE (UCA0CTLW0_H, 0x5c1)
                [!provide]                        PROVIDE (UCA0BRW, 0x5c6)
                0x00000000000005c6                PROVIDE (UCA0BRW_L, 0x5c6)
                0x00000000000005c7                PROVIDE (UCA0BRW_H, 0x5c7)
                0x00000000000005c8                PROVIDE (UCA0MCTL, 0x5c8)
                [!provide]                        PROVIDE (UCA0STAT, 0x5ca)
                0x00000000000005cc                PROVIDE (UCA0RXBUF, 0x5cc)
                0x00000000000005ce                PROVIDE (UCA0TXBUF, 0x5ce)
                [!provide]                        PROVIDE (UCA0ABCTL, 0x5d0)
                [!provide]                        PROVIDE (UCA0IRCTL, 0x5d2)
                [!provide]                        PROVIDE (UCA0IRCTL_L, 0x5d2)
                [!provide]                        PROVIDE (UCA0IRCTL_H, 0x5d3)
                [!provide]                        PROVIDE (UCA0ICTL, 0x5dc)
                0x00000000000005dc                PROVIDE (UCA0ICTL_L, 0x5dc)
                0x00000000000005dd                PROVIDE (UCA0ICTL_H, 0x5dd)
                [!provide]                        PROVIDE (UCA0IV, 0x5de)
                [!provide]                        PROVIDE (UCB0CTLW0, 0x5e0)
                [!provide]                        PROVIDE (UCB0CTLW0_L, 0x5e0)
                [!provide]                        PROVIDE (UCB0CTLW0_H, 0x5e1)
                [!provide]                        PROVIDE (UCB0BRW, 0x5e6)
                [!provide]                        PROVIDE (UCB0BRW_L, 0x5e6)
                [!provide]                        PROVIDE (UCB0BRW_H, 0x5e7)
                [!provide]                        PROVIDE (UCB0STAT, 0x5ea)
                [!provide]                        PROVIDE (UCB0RXBUF, 0x5ec)
                [!provide]                        PROVIDE (UCB0TXBUF, 0x5ee)
                [!provide]                        PROVIDE (UCB0I2COA, 0x5f0)
                [!provide]                        PROVIDE (UCB0I2COA_L, 0x5f0)
                [!provide]                        PROVIDE (UCB0I2COA_H, 0x5f1)
                [!provide]                        PROVIDE (UCB0I2CSA, 0x5f2)
                [!provide]                        PROVIDE (UCB0I2CSA_L, 0x5f2)
                [!provide]                        PROVIDE (UCB0I2CSA_H, 0x5f3)
                [!provide]                        PROVIDE (UCB0ICTL, 0x5fc)
                [!provide]                        PROVIDE (UCB0ICTL_L, 0x5fc)
                [!provide]                        PROVIDE (UCB0ICTL_H, 0x5fd)
                [!provide]                        PROVIDE (UCB0IV, 0x5fe)
                [!provide]                        PROVIDE (UCA1CTLW0, 0x600)
                0x0000000000000600                PROVIDE (UCA1CTLW0_L, 0x600)
                [!provide]                        PROVIDE (UCA1CTLW0_H, 0x601)
                [!provide]                        PROVIDE (UCA1BRW, 0x606)
                0x0000000000000606                PROVIDE (UCA1BRW_L, 0x606)
                0x0000000000000607                PROVIDE (UCA1BRW_H, 0x607)
                0x0000000000000608                PROVIDE (UCA1MCTL, 0x608)
                [!provide]                        PROVIDE (UCA1STAT, 0x60a)
                0x000000000000060c                PROVIDE (UCA1RXBUF, 0x60c)
                0x000000000000060e                PROVIDE (UCA1TXBUF, 0x60e)
                [!provide]                        PROVIDE (UCA1ABCTL, 0x610)
                [!provide]                        PROVIDE (UCA1IRCTL, 0x612)
                [!provide]                        PROVIDE (UCA1IRCTL_L, 0x612)
                [!provide]                        PROVIDE (UCA1IRCTL_H, 0x613)
                [!provide]                        PROVIDE (UCA1ICTL, 0x61c)
                0x000000000000061c                PROVIDE (UCA1ICTL_L, 0x61c)
                0x000000000000061d                PROVIDE (UCA1ICTL_H, 0x61d)
                [!provide]                        PROVIDE (UCA1IV, 0x61e)
                [!provide]                        PROVIDE (UCB1CTLW0, 0x620)
                [!provide]                        PROVIDE (UCB1CTLW0_L, 0x620)
                [!provide]                        PROVIDE (UCB1CTLW0_H, 0x621)
                [!provide]                        PROVIDE (UCB1BRW, 0x626)
                [!provide]                        PROVIDE (UCB1BRW_L, 0x626)
                [!provide]                        PROVIDE (UCB1BRW_H, 0x627)
                [!provide]                        PROVIDE (UCB1STAT, 0x62a)
                [!provide]                        PROVIDE (UCB1RXBUF, 0x62c)
                [!provide]                        PROVIDE (UCB1TXBUF, 0x62e)
                [!provide]                        PROVIDE (UCB1I2COA, 0x630)
                [!provide]                        PROVIDE (UCB1I2COA_L, 0x630)
                [!provide]                        PROVIDE (UCB1I2COA_H, 0x631)
                [!provide]                        PROVIDE (UCB1I2CSA, 0x632)
                [!provide]                        PROVIDE (UCB1I2CSA_L, 0x632)
                [!provide]                        PROVIDE (UCB1I2CSA_H, 0x633)
                [!provide]                        PROVIDE (UCB1ICTL, 0x63c)
                [!provide]                        PROVIDE (UCB1ICTL_L, 0x63c)
                [!provide]                        PROVIDE (UCB1ICTL_H, 0x63d)
                [!provide]                        PROVIDE (UCB1IV, 0x63e)
                [!provide]                        PROVIDE (UCA2CTLW0, 0x640)
                [!provide]                        PROVIDE (UCA2CTLW0_L, 0x640)
                [!provide]                        PROVIDE (UCA2CTLW0_H, 0x641)
                [!provide]                        PROVIDE (UCA2BRW, 0x646)
                [!provide]                        PROVIDE (UCA2BRW_L, 0x646)
                [!provide]                        PROVIDE (UCA2BRW_H, 0x647)
                [!provide]                        PROVIDE (UCA2MCTL, 0x648)
                [!provide]                        PROVIDE (UCA2STAT, 0x64a)
                [!provide]                        PROVIDE (UCA2RXBUF, 0x64c)
                [!provide]                        PROVIDE (UCA2TXBUF, 0x64e)
                [!provide]                        PROVIDE (UCA2ABCTL, 0x650)
                [!provide]                        PROVIDE (UCA2IRCTL, 0x652)
                [!provide]                        PROVIDE (UCA2IRCTL_L, 0x652)
                [!provide]                        PROVIDE (UCA2IRCTL_H, 0x653)
                [!provide]                        PROVIDE (UCA2ICTL, 0x65c)
                [!provide]                        PROVIDE (UCA2ICTL_L, 0x65c)
                [!provide]                        PROVIDE (UCA2ICTL_H, 0x65d)
                [!provide]                        PROVIDE (UCA2IV, 0x65e)
                [!provide]                        PROVIDE (UCB2CTLW0, 0x660)
                [!provide]                        PROVIDE (UCB2CTLW0_L, 0x660)
                [!provide]                        PROVIDE (UCB2CTLW0_H, 0x661)
                [!provide]                        PROVIDE (UCB2BRW, 0x666)
                [!provide]                        PROVIDE (UCB2BRW_L, 0x666)
                [!provide]                        PROVIDE (UCB2BRW_H, 0x667)
                [!provide]                        PROVIDE (UCB2STAT, 0x66a)
                [!provide]                        PROVIDE (UCB2RXBUF, 0x66c)
                [!provide]                        PROVIDE (UCB2TXBUF, 0x66e)
                [!provide]                        PROVIDE (UCB2I2COA, 0x670)
                [!provide]                        PROVIDE (UCB2I2COA_L, 0x670)
                [!provide]                        PROVIDE (UCB2I2COA_H, 0x671)
                [!provide]                        PROVIDE (UCB2I2CSA, 0x672)
                [!provide]                        PROVIDE (UCB2I2CSA_L, 0x672)
                [!provide]                        PROVIDE (UCB2I2CSA_H, 0x673)
                [!provide]                        PROVIDE (UCB2ICTL, 0x67c)
                [!provide]                        PROVIDE (UCB2ICTL_L, 0x67c)
                [!provide]                        PROVIDE (UCB2ICTL_H, 0x67d)
                [!provide]                        PROVIDE (UCB2IV, 0x67e)
                [!provide]                        PROVIDE (UCA3CTLW0, 0x680)
                0x0000000000000680                PROVIDE (UCA3CTLW0_L, 0x680)
                [!provide]                        PROVIDE (UCA3CTLW0_H, 0x681)
                [!provide]                        PROVIDE (UCA3BRW, 0x686)
                0x0000000000000686                PROVIDE (UCA3BRW_L, 0x686)
                0x0000000000000687                PROVIDE (UCA3BRW_H, 0x687)
                0x0000000000000688                PROVIDE (UCA3MCTL, 0x688)
                [!provide]                        PROVIDE (UCA3STAT, 0x68a)
                0x000000000000068c                PROVIDE (UCA3RXBUF, 0x68c)
                0x000000000000068e                PROVIDE (UCA3TXBUF, 0x68e)
                [!provide]                        PROVIDE (UCA3ABCTL, 0x690)
                [!provide]                        PROVIDE (UCA3IRCTL, 0x692)
                [!provide]                        PROVIDE (UCA3IRCTL_L, 0x692)
                [!provide]                        PROVIDE (UCA3IRCTL_H, 0x693)
                [!provide]                        PROVIDE (UCA3ICTL, 0x69c)
                0x000000000000069c                PROVIDE (UCA3ICTL_L, 0x69c)
                0x000000000000069d                PROVIDE (UCA3ICTL_H, 0x69d)
                [!provide]                        PROVIDE (UCA3IV, 0x69e)
                [!provide]                        PROVIDE (UCB3CTLW0, 0x6a0)
                [!provide]                        PROVIDE (UCB3CTLW0_L, 0x6a0)
                [!provide]                        PROVIDE (UCB3CTLW0_H, 0x6a1)
                [!provide]                        PROVIDE (UCB3BRW, 0x6a6)
                [!provide]                        PROVIDE (UCB3BRW_L, 0x6a6)
                [!provide]                        PROVIDE (UCB3BRW_H, 0x6a7)
                [!provide]                        PROVIDE (UCB3STAT, 0x6aa)
                [!provide]                        PROVIDE (UCB3RXBUF, 0x6ac)
                [!provide]                        PROVIDE (UCB3TXBUF, 0x6ae)
                [!provide]                        PROVIDE (UCB3I2COA, 0x6b0)
                [!provide]                        PROVIDE (UCB3I2COA_L, 0x6b0)
                [!provide]                        PROVIDE (UCB3I2COA_H, 0x6b1)
                [!provide]                        PROVIDE (UCB3I2CSA, 0x6b2)
                [!provide]                        PROVIDE (UCB3I2CSA_L, 0x6b2)
                [!provide]                        PROVIDE (UCB3I2CSA_H, 0x6b3)
                [!provide]                        PROVIDE (UCB3ICTL, 0x6bc)
                [!provide]                        PROVIDE (UCB3ICTL_L, 0x6bc)
                [!provide]                        PROVIDE (UCB3ICTL_H, 0x6bd)
                [!provide]                        PROVIDE (UCB3IV, 0x6be)
                0x000000000000015c                PROVIDE (WDTCTL, 0x15c)
                [!provide]                        PROVIDE (WDTCTL_L, 0x15c)
                [!provide]                        PROVIDE (WDTCTL_H, 0x15d)
LOAD /home/howard/app/ti/msp430-gcc/bin/../lib/gcc/msp430-elf/8.3.0/libgcc.a
LOAD /home/howard/app/ti/msp430-gcc/bin/../lib/gcc/msp430-elf/8.3.0/crtend_no_eh.o
LOAD /home/howard/app/ti/msp430-gcc/bin/../lib/gcc/msp430-elf/8.3.0/libgcc.a
OUTPUT(MSP430F5438A.out elf32-msp430)
